; Disassembly of the file "D:\Emerson\mc-1000\aplicativos cassete\othello.bin"
;
; Created with dZ80 v1.31
;
; on Wednesday, 05 of October 2011 at 12:46 PM
;
0100  ff        rst     #38
0101  ff        rst     #38
0102  ff        rst     #38
0103  ff        rst     #38
0104  010500    ld      bc,#0005
0107  ff        rst     #38
0108  ff        rst     #38
0109  ff        rst     #38
010a  ff        rst     #38
010b  ff        rst     #38
010c  ff        rst     #38
010d  ff        rst     #38
010e  ff        rst     #38
010f  ff        rst     #38
0110  ff        rst     #38
0111  ff        rst     #38
0112  ff        rst     #38
0113  ff        rst     #38
0114  ff        rst     #38
0115  ff        rst     #38
0116  ff        rst     #38
0117  ff        rst     #38
0118  ff        rst     #38
0119  ff        rst     #38
011a  ff        rst     #38
011b  ff        rst     #38
011c  ff        rst     #38
011d  ff        rst     #38
011e  ff        rst     #38
011f  ff        rst     #38
0120  c36303    jp      #0363
0123  02        ld      (bc),a
0124  02        ld      (bc),a
0125  ff        rst     #38
0126  ff        rst     #38
0127  ff        rst     #38
0128  ff        rst     #38
0129  ff        rst     #38
012a  ff        rst     #38
012b  ff        rst     #38
012c  ff        rst     #38
012d  ff        rst     #38
012e  ff        rst     #38
012f  ff        rst     #38
0130  c9        ret     
 
0131  ff        rst     #38
0132  ff        rst     #38
0133  ff        rst     #38
0134  ff        rst     #38
0135  ff        rst     #38
0136  ff        rst     #38
0137  ff        rst     #38
0138  ff        rst     #38
0139  00        nop     
013a  ff        rst     #38
013b  ff        rst     #38
013c  ff        rst     #38
013d  ff        rst     #38
013e  ff        rst     #38
013f  ff        rst     #38
0140  ff        rst     #38
0141  ff        rst     #38
0142  00        nop     
0143  ff        rst     #38
0144  ff        rst     #38
0145  ff        rst     #38
0146  ff        rst     #38
0147  ff        rst     #38
0148  ff        rst     #38
0149  ff        rst     #38
014a  ff        rst     #38
014b  00        nop     
014c  ff        rst     #38
014d  ff        rst     #38
014e  ff        rst     #38
014f  ff        rst     #38
0150  ff        rst     #38
0151  ff        rst     #38
0152  ff        rst     #38
0153  ff        rst     #38
0154  ff        rst     #38
0155  ff        rst     #38
0156  ff        rst     #38
0157  ff        rst     #38
0158  ff        rst     #38
0159  ff        rst     #38
015a  ff        rst     #38
015b  ff        rst     #38
015c  ff        rst     #38
015d  ff        rst     #38
015e  00        nop     
015f  ff        rst     #38
0160  ff        rst     #38
0161  ff        rst     #38
0162  ff        rst     #38
0163  ff        rst     #38
0164  ff        rst     #38
0165  ff        rst     #38
0166  ff        rst     #38
0167  ff        rst     #38
0168  ff        rst     #38
0169  ff        rst     #38
016a  ff        rst     #38
016b  ff        rst     #38
016c  ff        rst     #38
016d  ff        rst     #38
016e  ff        rst     #38
016f  ff        rst     #38
0170  ff        rst     #38
0171  ff        rst     #38
0172  ff        rst     #38
0173  ff        rst     #38
0174  ff        rst     #38
0175  ff        rst     #38
0176  ff        rst     #38
0177  ff        rst     #38
0178  ff        rst     #38
0179  ff        rst     #38
017a  ff        rst     #38
017b  ff        rst     #38
017c  ff        rst     #38
017d  ff        rst     #38
017e  ff        rst     #38
017f  ff        rst     #38
0180  ff        rst     #38
0181  ff        rst     #38
0182  ff        rst     #38
0183  ff        rst     #38
0184  ff        rst     #38
0185  ff        rst     #38
0186  ff        rst     #38
0187  ff        rst     #38
0188  ff        rst     #38
0189  ff        rst     #38
018a  ff        rst     #38
018b  ff        rst     #38
018c  ff        rst     #38
018d  ff        rst     #38
018e  ff        rst     #38
018f  ff        rst     #38
0190  ff        rst     #38
0191  ff        rst     #38
0192  ff        rst     #38
0193  ff        rst     #38
0194  ff        rst     #38
0195  ff        rst     #38
0196  ff        rst     #38
0197  ff        rst     #38
0198  ff        rst     #38
0199  ff        rst     #38
019a  ff        rst     #38
019b  ff        rst     #38
019c  ff        rst     #38
019d  ff        rst     #38
019e  ff        rst     #38
019f  ff        rst     #38
01a0  ff        rst     #38
01a1  ff        rst     #38
01a2  ff        rst     #38
01a3  ff        rst     #38
01a4  ff        rst     #38
01a5  ff        rst     #38
01a6  ff        rst     #38
01a7  ff        rst     #38
01a8  ff        rst     #38
01a9  ff        rst     #38
01aa  ff        rst     #38
01ab  ff        rst     #38
01ac  ff        rst     #38
01ad  ff        rst     #38
01ae  ff        rst     #38
01af  ff        rst     #38
01b0  ff        rst     #38
01b1  ff        rst     #38
01b2  ff        rst     #38
01b3  ff        rst     #38
01b4  ff        rst     #38
01b5  ff        rst     #38
01b6  ff        rst     #38
01b7  ff        rst     #38
01b8  ff        rst     #38
01b9  ff        rst     #38
01ba  ff        rst     #38
01bb  ff        rst     #38
01bc  ff        rst     #38
01bd  ff        rst     #38
01be  ff        rst     #38
01bf  ff        rst     #38
01c0  ff        rst     #38
01c1  ff        rst     #38
01c2  ff        rst     #38
01c3  ff        rst     #38
01c4  ff        rst     #38
01c5  ff        rst     #38
01c6  ff        rst     #38
01c7  ff        rst     #38
01c8  ff        rst     #38
01c9  ff        rst     #38
01ca  ff        rst     #38
01cb  ff        rst     #38
01cc  ff        rst     #38
01cd  ff        rst     #38
01ce  ff        rst     #38
01cf  ff        rst     #38
01d0  ff        rst     #38
01d1  ff        rst     #38
01d2  ff        rst     #38
01d3  ff        rst     #38
01d4  ff        rst     #38
01d5  ff        rst     #38
01d6  ff        rst     #38
01d7  ff        rst     #38
01d8  ff        rst     #38
01d9  ff        rst     #38
01da  ff        rst     #38
01db  ff        rst     #38
01dc  ff        rst     #38
01dd  ff        rst     #38
01de  ff        rst     #38
01df  ff        rst     #38
01e0  ff        rst     #38
01e1  ff        rst     #38
01e2  ff        rst     #38
01e3  ff        rst     #38
01e4  ff        rst     #38
01e5  ff        rst     #38
01e6  ff        rst     #38
01e7  ff        rst     #38
01e8  ff        rst     #38
01e9  ff        rst     #38
01ea  ff        rst     #38
01eb  ff        rst     #38
01ec  ff        rst     #38
01ed  ff        rst     #38
01ee  ff        rst     #38
01ef  ff        rst     #38
01f0  ff        rst     #38
01f1  ff        rst     #38
01f2  ff        rst     #38
01f3  ff        rst     #38
01f4  ff        rst     #38
01f5  ff        rst     #38
01f6  ff        rst     #38
01f7  ff        rst     #38
01f8  ff        rst     #38
01f9  ff        rst     #38
01fa  ff        rst     #38
01fb  ff        rst     #38
01fc  ff        rst     #38
01fd  ff        rst     #38
01fe  ff        rst     #38
01ff  ff        rst     #38
0200  c3560c    jp      #0c56
0203  c3840c    jp      #0c84
0206  c3920c    jp      #0c92
0209  c3a00c    jp      #0ca0
020c  c34bc0    jp      #c04b
020f  c34909    jp      #0949
0212  c36c09    jp      #096c
0215  c38309    jp      #0983
0218  c3a609    jp      #09a6
021b  c3bb09    jp      #09bb
021e  c3dc09    jp      #09dc
0221  c3f309    jp      #09f3
0224  c3160a    jp      #0a16
0227  c32d0a    jp      #0a2d
022a  c3500a    jp      #0a50
022d  c3670a    jp      #0a67
0230  c38a0a    jp      #0a8a
0233  c39f0a    jp      #0a9f
0236  c3c00a    jp      #0ac0
0239  c3d70a    jp      #0ad7
023c  c3fa0a    jp      #0afa
023f  c3110b    jp      #0b11
0242  c3320b    jp      #0b32
0245  c3470b    jp      #0b47
0248  c36a0b    jp      #0b6a
024b  c37f0b    jp      #0b7f
024e  c3a20b    jp      #0ba2
0251  c3b70b    jp      #0bb7
0254  c3da0b    jp      #0bda
0257  c3ef0b    jp      #0bef
025a  c30e0c    jp      #0c0e
025d  c3250c    jp      #0c25
0260  c3480c    jp      #0c48
0263  c35f0c    jp      #0c5f
0266  c3800c    jp      #0c80
0269  c3950c    jp      #0c95
026c  c3b80c    jp      #0cb8
026f  c3cd0c    jp      #0ccd
0272  c37502    jp      #0275
0275  c3050d    jp      #0d05
0278  c34bc0    jp      #c04b
027b  7d        ld      a,l
027c  02        ld      (bc),a
027d  47        ld      b,a
027e  81        add     a,c
027f  a9        xor     c
0280  80        add     a,b
0281  4b        ld      c,e
0282  80        add     a,b
0283  2d        dec     l
0284  80        add     a,b
0285  0f        rrca    
0286  80        add     a,b
0287  118033    ld      de,#3380
028a  80        add     a,b
028b  55        ld      d,l
028c  80        add     a,b
028d  97        sub     a
028e  80        add     a,b
028f  f9        ld      sp,hl
0290  80        add     a,b
0291  9a        sbc     a,d
0292  81        add     a,c
0293  39        add     hl,sp
0294  82        add     a,d
0295  d8        ret     c
 
0296  82        add     a,d
0297  56        ld      d,(hl)
0298  83        add     a,e
0299  b4        or      h
029a  83        add     a,e
029b  f28330    jp      p,#3083
029e  84        add     a,h
029f  ee83      xor     #83
02a1  ac        xor     h
02a2  83        add     a,e
02a3  6a        ld      l,d
02a4  83        add     a,e
02a5  08        ex      af,af'
02a6  010200    ld      bc,#0002
02a9  00        nop     
02aa  00        nop     
02ab  00        nop     
02ac  81        add     a,c
02ad  a9        xor     c
02ae  63        ld      h,e
02af  02        ld      (bc),a
02b0  80        add     a,b
02b1  00        nop     
02b2  80        add     a,b
02b3  0f        rrca    
02b4  80        add     a,b
02b5  118033    ld      de,#3380
02b8  80        add     a,b
02b9  55        ld      d,l
02ba  00        nop     
02bb  c32831    jp      #3128
02be  0a        ld      a,(bc)
02bf  17        rla     
02c0  2d        dec     l
02c1  2a0000    ld      hl,(#0000)
02c4  82        add     a,d
02c5  56        ld      d,(hl)
02c6  83        add     a,e
02c7  00        nop     
02c8  00        nop     
02c9  ff        rst     #38
02ca  01f60a    ld      bc,#0af6
02cd  f5        push    af
02ce  f7        rst     #30
02cf  09        add     hl,bc
02d0  0b        dec     bc
02d1  0b        dec     bc
02d2  010c08    ld      bc,#080c
02d5  0d        dec     c
02d6  02        ld      (bc),a
02d7  0e04      ld      c,#04
02d9  0f        rrca    
02da  04        inc     b
02db  1002      djnz    #02df           ; (2)
02dd  110812    ld      de,#1208
02e0  011508    ld      bc,#0815
02e3  1608      ld      d,#08
02e5  17        rla     
02e6  07        rlca    
02e7  1806      jr      #02ef           ; (6)
02e9  19        add     hl,de
02ea  061a      ld      b,#1a
02ec  07        rlca    
02ed  1b        dec     de
02ee  08        ex      af,af'
02ef  1c        inc     e
02f0  08        ex      af,af'
02f1  1f        rra     
02f2  02        ld      (bc),a
02f3  2007      jr      nz,#02fc        ; (7)
02f5  210322    ld      hl,#2203
02f8  05        dec     b
02f9  23        inc     hl
02fa  05        dec     b
02fb  24        inc     h
02fc  03        inc     bc
02fd  25        dec     h
02fe  07        rlca    
02ff  2602      ld      h,#02
0301  29        add     hl,hl
0302  04        inc     b
0303  2a062b    ld      hl,(#2b06)
0306  05        dec     b
0307  2e05      ld      l,#05
0309  2f        cpl     
030a  0630      ld      b,#30
030c  04        inc     b
030d  33        inc     sp
030e  04        inc     b
030f  34        inc     (hl)
0310  0635      ld      b,#35
0312  05        dec     b
0313  3805      jr      c,#031a         ; (5)
0315  39        add     hl,sp
0316  063a      ld      b,#3a
0318  04        inc     b
0319  3d        dec     a
031a  02        ld      (bc),a
031b  3e07      ld      a,#07
031d  3f        ccf     
031e  03        inc     bc
031f  40        ld      b,b
0320  05        dec     b
0321  41        ld      b,c
0322  05        dec     b
0323  42        ld      b,d
0324  03        inc     bc
0325  43        ld      b,e
0326  07        rlca    
0327  44        ld      b,h
0328  02        ld      (bc),a
0329  47        ld      b,a
032a  08        ex      af,af'
032b  48        ld      c,b
032c  08        ex      af,af'
032d  49        ld      c,c
032e  07        rlca    
032f  4a        ld      c,d
0330  064b      ld      b,#4b
0332  064c      ld      b,#4c
0334  07        rlca    
0335  4d        ld      c,l
0336  08        ex      af,af'
0337  4e        ld      c,(hl)
0338  08        ex      af,af'
0339  51        ld      d,c
033a  015208    ld      bc,#0852
033d  53        ld      d,e
033e  02        ld      (bc),a
033f  54        ld      d,h
0340  04        inc     b
0341  55        ld      d,l
0342  04        inc     b
0343  56        ld      d,(hl)
0344  02        ld      (bc),a
0345  57        ld      d,a
0346  08        ex      af,af'
0347  58        ld      e,b
0348  01000a    ld      bc,#0a00
034b  e0        ret     po
 
034c  0a        ld      a,(bc)
034d  e0        ret     po
 
034e  0a        ld      a,(bc)
034f  01aa20    ld      bc,#20aa
0352  aa        xor     d
0353  20aa      jr      nz,#02ff        ; (-86)
0355  ff        rst     #38
0356  00        nop     
0357  05        dec     b
0358  e0        ret     po
 
0359  05        dec     b
035a  e0        ret     po
 
035b  05        dec     b
035c  015520    ld      bc,#2055
035f  55        ld      d,l
0360  2055      jr      nz,#03b7        ; (85)
0362  ff        rst     #38
0363  3ac602    ld      a,(#02c6)
0366  b7        or      a
0367  ca7903    jp      z,#0379
036a  3ac502    ld      a,(#02c5)
036d  3d        dec     a
036e  32c502    ld      (#02c5),a
0371  c0        ret     nz
 
0372  af        xor     a
0373  32c602    ld      (#02c6),a
0376  c39403    jp      #0394
0379  3ac502    ld      a,(#02c5)
037c  3d        dec     a
037d  32c502    ld      (#02c5),a
0380  c0        ret     nz
 
0381  3e01      ld      a,#01
0383  32c602    ld      (#02c6),a
0386  e5        push    hl
0387  d5        push    de
0388  213d81    ld      hl,#813d
038b  115603    ld      de,#0356
038e  cd2405    call    #0524
0391  d1        pop     de
0392  e1        pop     hl
0393  c9        ret     
 
0394  3aa702    ld      a,(#02a7)
0397  fe01      cp      #01
0399  caaa03    jp      z,#03aa
039c  e5        push    hl
039d  d5        push    de
039e  213d81    ld      hl,#813d
03a1  115603    ld      de,#0356
03a4  cd0705    call    #0507
03a7  d1        pop     de
03a8  e1        pop     hl
03a9  c9        ret     
 
03aa  e5        push    hl
03ab  d5        push    de
03ac  213d81    ld      hl,#813d
03af  114903    ld      de,#0349
03b2  cd0705    call    #0507
03b5  d1        pop     de
03b6  e1        pop     hl
03b7  c9        ret     
 
03b8  cd39c0    call    #c039
03bb  21920d    ld      hl,#0d92
03be  223701    ld      (#0137),hl
03c1  21290e    ld      hl,#0e29
03c4  224001    ld      (#0140),hl
03c7  3e7d      ld      a,#7d
03c9  323901    ld      (#0139),a
03cc  3e79      ld      a,#79
03ce  324201    ld      (#0142),a
03d1  2abe02    ld      hl,(#02be)
03d4  4d        ld      c,l
03d5  44        ld      b,h
03d6  21e381    ld      hl,#81e3
03d9  0d        dec     c
03da  ca0a04    jp      z,#040a
03dd  36aa      ld      (hl),#aa
03df  23        inc     hl
03e0  cdd504    call    #04d5
03e3  05        dec     b
03e4  c2dd03    jp      nz,#03dd
03e7  36aa      ld      (hl),#aa
03e9  1ec0      ld      e,#c0
03eb  cdc904    call    #04c9
03ee  0617      ld      b,#17
03f0  0d        dec     c
03f1  ca0a04    jp      z,#040a
03f4  36aa      ld      (hl),#aa
03f6  2b        dec     hl
03f7  cdd504    call    #04d5
03fa  05        dec     b
03fb  c2f403    jp      nz,#03f4
03fe  36aa      ld      (hl),#aa
0400  1ec0      ld      e,#c0
0402  cdc904    call    #04c9
0405  0617      ld      b,#17
0407  c3d903    jp      #03d9
040a  1ec0      ld      e,#c0
040c  cdcf04    call    #04cf
040f  0e00      ld      c,#00
0411  cd4105    call    #0541
0414  0e03      ld      c,#03
0416  cd5705    call    #0557
0419  0e03      ld      c,#03
041b  cd4105    call    #0541
041e  0e03      ld      c,#03
0420  cd5705    call    #0557
0423  0e03      ld      c,#03
0425  cd4105    call    #0541
0428  0e03      ld      c,#03
042a  cd5705    call    #0557
042d  0e03      ld      c,#03
042f  cd4105    call    #0541
0432  0e03      ld      c,#03
0434  cd5705    call    #0557
0437  0e03      ld      c,#03
0439  cd4105    call    #0541
043c  360a      ld      (hl),#0a
043e  112381    ld      de,#8123
0441  2e08      ld      l,#08
0443  0601      ld      b,#01
0445  e5        push    hl
0446  d5        push    de
0447  c5        push    bc
0448  0e00      ld      c,#00
044a  cd42c0    call    #c042
044d  c1        pop     bc
044e  04        inc     b
044f  d1        pop     de
0450  eb        ex      de,hl
0451  1e03      ld      e,#03
0453  cdc904    call    #04c9
0456  eb        ex      de,hl
0457  cde104    call    #04e1
045a  e1        pop     hl
045b  2d        dec     l
045c  c24504    jp      nz,#0445
045f  110082    ld      de,#8200
0462  2e08      ld      l,#08
0464  0601      ld      b,#01
0466  e5        push    hl
0467  d5        push    de
0468  c5        push    bc
0469  0e00      ld      c,#00
046b  cd42c0    call    #c042
046e  c1        pop     bc
046f  04        inc     b
0470  d1        pop     de
0471  eb        ex      de,hl
0472  1ec0      ld      e,#c0
0474  cdc904    call    #04c9
0477  eb        ex      de,hl
0478  cde104    call    #04e1
047b  e1        pop     hl
047c  2d        dec     l
047d  c26604    jp      nz,#0466
0480  21ac84    ld      hl,#84ac
0483  115603    ld      de,#0356
0486  d5        push    de
0487  cd0705    call    #0507
048a  d1        pop     de
048b  216f85    ld      hl,#856f
048e  cd0705    call    #0507
0491  21af84    ld      hl,#84af
0494  114903    ld      de,#0349
0497  d5        push    de
0498  cd0705    call    #0507
049b  d1        pop     de
049c  216c85    ld      hl,#856c
049f  cd0705    call    #0507
04a2  211d83    ld      hl,#831d
04a5  114903    ld      de,#0349
04a8  cd0705    call    #0507
04ab  3a2301    ld      a,(#0123)
04ae  0e00      ld      c,#00
04b0  11bb83    ld      de,#83bb
04b3  cd3fc0    call    #c03f
04b6  211d86    ld      hl,#861d
04b9  115603    ld      de,#0356
04bc  cd0705    call    #0507
04bf  3a2401    ld      a,(#0124)
04c2  11bb86    ld      de,#86bb
04c5  cd3fc0    call    #c03f
04c8  c9        ret     
 
04c9  7d        ld      a,l
04ca  83        add     a,e
04cb  6f        ld      l,a
04cc  d0        ret     nc
 
04cd  24        inc     h
04ce  c9        ret     
 
04cf  7d        ld      a,l
04d0  93        sub     e
04d1  6f        ld      l,a
04d2  d0        ret     nc
 
04d3  25        dec     h
04d4  c9        ret     
 
04d5  cdfd04    call    #04fd
04d8  c5        push    bc
04d9  010300    ld      bc,#0003
04dc  cd48c0    call    #c048
04df  c1        pop     bc
04e0  c9        ret     
 
04e1  cdfd04    call    #04fd
04e4  c5        push    bc
04e5  010100    ld      bc,#0001
04e8  cd48c0    call    #c048
04eb  c1        pop     bc
04ec  c9        ret     
 
04ed  7e        ld      a,(hl)
04ee  b1        or      c
04ef  77        ld      (hl),a
04f0  58        ld      e,b
04f1  cdcf04    call    #04cf
04f4  c9        ret     
 
04f5  7e        ld      a,(hl)
04f6  b1        or      c
04f7  77        ld      (hl),a
04f8  58        ld      e,b
04f9  cdc904    call    #04c9
04fc  c9        ret     
 
04fd  e5        push    hl
04fe  c5        push    bc
04ff  d5        push    de
0500  cd27c0    call    #c027
0503  d1        pop     de
0504  c1        pop     bc
0505  e1        pop     hl
0506  c9        ret     
 
0507  c5        push    bc
0508  1a        ld      a,(de)
0509  feff      cp      #ff
050b  ca2205    jp      z,#0522
050e  4f        ld      c,a
050f  07        rlca    
0510  da1d05    jp      c,#051d
0513  0600      ld      b,#00
0515  09        add     hl,bc
0516  13        inc     de
0517  1a        ld      a,(de)
0518  77        ld      (hl),a
0519  13        inc     de
051a  c30805    jp      #0508
051d  06ff      ld      b,#ff
051f  c31505    jp      #0515
0522  c1        pop     bc
0523  c9        ret     
 
0524  c5        push    bc
0525  1a        ld      a,(de)
0526  feff      cp      #ff
0528  ca3f05    jp      z,#053f
052b  4f        ld      c,a
052c  07        rlca    
052d  da3a05    jp      c,#053a
0530  0600      ld      b,#00
0532  09        add     hl,bc
0533  13        inc     de
0534  13        inc     de
0535  3600      ld      (hl),#00
0537  c32505    jp      #0525
053a  06ff      ld      b,#ff
053c  c33205    jp      #0532
053f  c1        pop     bc
0540  c9        ret     
 
0541  0630      ld      b,#30
0543  59        ld      e,c
0544  cdcf04    call    #04cf
0547  c5        push    bc
0548  010a20    ld      bc,#200a
054b  cded04    call    #04ed
054e  cde104    call    #04e1
0551  c1        pop     bc
0552  05        dec     b
0553  c24705    jp      nz,#0547
0556  c9        ret     
 
0557  0630      ld      b,#30
0559  59        ld      e,c
055a  cdcf04    call    #04cf
055d  c5        push    bc
055e  010a20    ld      bc,#200a
0561  cdf504    call    #04f5
0564  cde104    call    #04e1
0567  c1        pop     bc
0568  05        dec     b
0569  c25d05    jp      nz,#055d
056c  c9        ret     
 
056d  0664      ld      b,#64
056f  3abb02    ld      a,(#02bb)
0572  322001    ld      (#0120),a
0575  3e01      ld      a,#01
0577  32a602    ld      (#02a6),a
057a  3e02      ld      a,#02
057c  32a702    ld      (#02a7),a
057f  322301    ld      (#0123),a
0582  322401    ld      (#0124),a
0585  3e00      ld      a,#00
0587  32a802    ld      (#02a8),a
058a  32a902    ld      (#02a9),a
058d  323901    ld      (#0139),a
0590  324201    ld      (#0142),a
0593  324b01    ld      (#014b),a
0596  110f02    ld      de,#020f
0599  12        ld      (de),a
059a  13        inc     de
059b  05        dec     b
059c  c29905    jp      nz,#0599
059f  3e01      ld      a,#01
05a1  324502    ld      (#0245),a
05a4  323c02    ld      (#023c),a
05a7  3e02      ld      a,#02
05a9  324602    ld      (#0246),a
05ac  323b02    ld      (#023b),a
05af  210f02    ld      hl,#020f
05b2  e5        push    hl
05b3  060a      ld      b,#0a
05b5  3609      ld      (hl),#09
05b7  1e0a      ld      e,#0a
05b9  cdc904    call    #04c9
05bc  05        dec     b
05bd  c2b505    jp      nz,#05b5
05c0  e1        pop     hl
05c1  060a      ld      b,#0a
05c3  3609      ld      (hl),#09
05c5  23        inc     hl
05c6  05        dec     b
05c7  c2c305    jp      nz,#05c3
05ca  2b        dec     hl
05cb  0609      ld      b,#09
05cd  3609      ld      (hl),#09
05cf  1e0a      ld      e,#0a
05d1  cdc904    call    #04c9
05d4  05        dec     b
05d5  c2cd05    jp      nz,#05cd
05d8  0609      ld      b,#09
05da  3609      ld      (hl),#09
05dc  2b        dec     hl
05dd  05        dec     b
05de  c2da05    jp      nz,#05da
05e1  0630      ld      b,#30
05e3  217502    ld      hl,#0275
05e6  3699      ld      (hl),#99
05e8  23        inc     hl
05e9  05        dec     b
05ea  c2e605    jp      nz,#05e6
05ed  c9        ret     
 
05ee  21fa0f    ld      hl,#0ffa
05f1  224901    ld      (#0149),hl
05f4  3e79      ld      a,#79
05f6  324b01    ld      (#014b),a
05f9  c9        ret     
 
05fa  3aa502    ld      a,(#02a5)
05fd  fe00      cp      #00
05ff  ca0a06    jp      z,#060a
0602  3aa602    ld      a,(#02a6)
0605  fe02      cp      #02
0607  caaa0a    jp      z,#0aaa
060a  cd06c0    call    #c006
060d  fe31      cp      #31
060f  dafa05    jp      c,#05fa
0612  fe39      cp      #39
0614  d2fa05    jp      nc,#05fa
0617  d630      sub     #30
0619  f5        push    af
061a  01000e    ld      bc,#0e00
061d  c5        push    bc
061e  110c80    ld      de,#800c
0621  cd42c0    call    #c042
0624  c1        pop     bc
0625  110f80    ld      de,#800f
0628  cd42c0    call    #c042
062b  f1        pop     af
062c  f5        push    af
062d  47        ld      b,a
062e  110c80    ld      de,#800c
0631  0e00      ld      c,#00
0633  cd42c0    call    #c042
0636  f1        pop     af
0637  6f        ld      l,a
0638  3e08      ld      a,#08
063a  95        sub     l
063b  4f        ld      c,a
063c  e5        push    hl
063d  c5        push    bc
063e  3aa502    ld      a,(#02a5)
0641  fe00      cp      #00
0643  ca5106    jp      z,#0651
0646  3aa602    ld      a,(#02a6)
0649  fe02      cp      #02
064b  3ac802    ld      a,(#02c8)
064e  ca5e06    jp      z,#065e
0651  cd06c0    call    #c006
0654  fe31      cp      #31
0656  da5106    jp      c,#0651
0659  fe39      cp      #39
065b  d25106    jp      nc,#0651
065e  d630      sub     #30
0660  f5        push    af
0661  47        ld      b,a
0662  0e00      ld      c,#00
0664  110f80    ld      de,#800f
0667  cd42c0    call    #c042
066a  f1        pop     af
066b  c1        pop     bc
066c  5f        ld      e,a
066d  d601      sub     #01
066f  cd2ac0    call    #c02a
0672  e5        push    hl
0673  c1        pop     bc
0674  e1        pop     hl
0675  c5        push    bc
0676  4d        ld      c,l
0677  7b        ld      a,e
0678  cd2ac0    call    #c02a
067b  c1        pop     bc
067c  79        ld      a,c
067d  85        add     a,l
067e  fe09      cp      #09
0680  d29106    jp      nc,#0691
0683  f5        push    af
0684  216082    ld      hl,#8260
0687  cd6b07    call    #076b
068a  cd6307    call    #0763
068d  f1        pop     af
068e  c60a      add     a,#0a
0690  c9        ret     
 
0691  fe11      cp      #11
0693  d2a606    jp      nc,#06a6
0696  f5        push    af
0697  d608      sub     #08
0699  212083    ld      hl,#8320
069c  cd6b07    call    #076b
069f  cd6307    call    #0763
06a2  f1        pop     af
06a3  c60c      add     a,#0c
06a5  c9        ret     
 
06a6  fe19      cp      #19
06a8  d2bb06    jp      nc,#06bb
06ab  f5        push    af
06ac  d610      sub     #10
06ae  21e083    ld      hl,#83e0
06b1  cd6b07    call    #076b
06b4  cd6307    call    #0763
06b7  f1        pop     af
06b8  c60e      add     a,#0e
06ba  c9        ret     
 
06bb  fe21      cp      #21
06bd  d2d006    jp      nc,#06d0
06c0  f5        push    af
06c1  d618      sub     #18
06c3  21a084    ld      hl,#84a0
06c6  cd6b07    call    #076b
06c9  cd6307    call    #0763
06cc  f1        pop     af
06cd  c610      add     a,#10
06cf  c9        ret     
 
06d0  fe29      cp      #29
06d2  d2e506    jp      nc,#06e5
06d5  f5        push    af
06d6  d620      sub     #20
06d8  216085    ld      hl,#8560
06db  cd6b07    call    #076b
06de  cd6307    call    #0763
06e1  f1        pop     af
06e2  c612      add     a,#12
06e4  c9        ret     
 
06e5  fe31      cp      #31
06e7  d2fa06    jp      nc,#06fa
06ea  f5        push    af
06eb  d628      sub     #28
06ed  212086    ld      hl,#8620
06f0  cd6b07    call    #076b
06f3  cd6307    call    #0763
06f6  f1        pop     af
06f7  c614      add     a,#14
06f9  c9        ret     
 
06fa  fe39      cp      #39
06fc  d20f07    jp      nc,#070f
06ff  f5        push    af
0700  d630      sub     #30
0702  21e086    ld      hl,#86e0
0705  cd6b07    call    #076b
0708  cd6307    call    #0763
070b  f1        pop     af
070c  c616      add     a,#16
070e  c9        ret     
 
070f  fe41      cp      #41
0711  d0        ret     nc
 
0712  f5        push    af
0713  d638      sub     #38
0715  21a087    ld      hl,#87a0
0718  cd6b07    call    #076b
071b  cd6307    call    #0763
071e  f1        pop     af
071f  c618      add     a,#18
0721  c9        ret     
 
0722  fe13      cp      #13
0724  d22a07    jp      nc,#072a
0727  d60a      sub     #0a
0729  c9        ret     
 
072a  fe1d      cp      #1d
072c  d23207    jp      nc,#0732
072f  d60c      sub     #0c
0731  c9        ret     
 
0732  fe27      cp      #27
0734  d23a07    jp      nc,#073a
0737  d60e      sub     #0e
0739  c9        ret     
 
073a  fe31      cp      #31
073c  d24207    jp      nc,#0742
073f  d610      sub     #10
0741  c9        ret     
 
0742  fe3b      cp      #3b
0744  d24a07    jp      nc,#074a
0747  d612      sub     #12
0749  c9        ret     
 
074a  fe45      cp      #45
074c  d25207    jp      nc,#0752
074f  d614      sub     #14
0751  c9        ret     
 
0752  fe4f      cp      #4f
0754  d25a07    jp      nc,#075a
0757  d616      sub     #16
0759  c9        ret     
 
075a  fe59      cp      #59
075c  d0        ret     nc
 
075d  d618      sub     #18
075f  c9        ret     
 
0760  210f02    ld      hl,#020f
0763  85        add     a,l
0764  6f        ld      l,a
0765  7c        ld      a,h
0766  ce00      adc     a,#00
0768  67        ld      h,a
0769  7e        ld      a,(hl)
076a  c9        ret     
 
076b  d5        push    de
076c  e5        push    hl
076d  c5        push    bc
076e  0e03      ld      c,#03
0770  cd2ac0    call    #c02a
0773  7d        ld      a,l
0774  c1        pop     bc
0775  e1        pop     hl
0776  d1        pop     de
0777  c9        ret     
 
0778  cd6d05    call    #056d
077b  cdb803    call    #03b8
077e  cdfa05    call    #05fa
0781  22c202    ld      (#02c2),hl
0784  47        ld      b,a
0785  cd6007    call    #0760
0788  fe00      cp      #00
078a  c2ba07    jp      nz,#07ba
078d  1e08      ld      e,#08
078f  21c902    ld      hl,#02c9
0792  78        ld      a,b
0793  86        add     a,(hl)
0794  e5        push    hl
0795  4f        ld      c,a
0796  cd6007    call    #0760
0799  21a602    ld      hl,#02a6
079c  be        cp      (hl)
079d  e1        pop     hl
079e  cae407    jp      z,#07e4
07a1  23        inc     hl
07a2  1d        dec     e
07a3  c29207    jp      nz,#0792
07a6  3a2301    ld      a,(#0123)
07a9  212401    ld      hl,#0124
07ac  86        add     a,(hl)
07ad  fe40      cp      #40
07af  ca7d09    jp      z,#097d
07b2  3aa802    ld      a,(#02a8)
07b5  fe00      cp      #00
07b7  c23009    jp      nz,#0930
07ba  01000d    ld      bc,#0d00
07bd  111580    ld      de,#8015
07c0  d5        push    de
07c1  cd42c0    call    #c042
07c4  011405    ld      bc,#0514
07c7  cd48c0    call    #c048
07ca  d1        pop     de
07cb  01000e    ld      bc,#0e00
07ce  c5        push    bc
07cf  cd42c0    call    #c042
07d2  c1        pop     bc
07d3  c5        push    bc
07d4  110c80    ld      de,#800c
07d7  cd42c0    call    #c042
07da  c1        pop     bc
07db  110f80    ld      de,#800f
07de  cd42c0    call    #c042
07e1  c37e07    jp      #077e
07e4  1d        dec     e
07e5  79        ld      a,c
07e6  e5        push    hl
07e7  86        add     a,(hl)
07e8  4f        ld      c,a
07e9  cd6007    call    #0760
07ec  21a602    ld      hl,#02a6
07ef  be        cp      (hl)
07f0  e1        pop     hl
07f1  cae507    jp      z,#07e5
07f4  e5        push    hl
07f5  21a702    ld      hl,#02a7
07f8  be        cp      (hl)
07f9  e1        pop     hl
07fa  23        inc     hl
07fb  c22209    jp      nz,#0922
07fe  2b        dec     hl
07ff  e5        push    hl
0800  78        ld      a,b
0801  cd6007    call    #0760
0804  3aa702    ld      a,(#02a7)
0807  77        ld      (hl),a
0808  3aa802    ld      a,(#02a8)
080b  fe00      cp      #00
080d  c25108    jp      nz,#0851
0810  3aa702    ld      a,(#02a7)
0813  fe01      cp      #01
0815  ca3608    jp      z,#0836
0818  3a2401    ld      a,(#0124)
081b  c601      add     a,#01
081d  322401    ld      (#0124),a
0820  c5        push    bc
0821  d5        push    de
0822  2ac202    ld      hl,(#02c2)
0825  115603    ld      de,#0356
0828  cd0705    call    #0507
082b  01bc02    ld      bc,#02bc
082e  cd48c0    call    #c048
0831  d1        pop     de
0832  c1        pop     bc
0833  c35108    jp      #0851
0836  3a2301    ld      a,(#0123)
0839  c601      add     a,#01
083b  322301    ld      (#0123),a
083e  c5        push    bc
083f  d5        push    de
0840  2ac202    ld      hl,(#02c2)
0843  114903    ld      de,#0349
0846  cd0705    call    #0507
0849  01bc02    ld      bc,#02bc
084c  cd48c0    call    #c048
084f  d1        pop     de
0850  c1        pop     bc
0851  e1        pop     hl
0852  3e00      ld      a,#00
0854  32a802    ld      (#02a8),a
0857  79        ld      a,c
0858  96        sub     (hl)
0859  4f        ld      c,a
085a  b8        cp      b
085b  23        inc     hl
085c  cac508    jp      z,#08c5
085f  2b        dec     hl
0860  e5        push    hl
0861  3aa802    ld      a,(#02a8)
0864  c601      add     a,#01
0866  32a802    ld      (#02a8),a
0869  79        ld      a,c
086a  cd6007    call    #0760
086d  3aa702    ld      a,(#02a7)
0870  77        ld      (hl),a
0871  79        ld      a,c
0872  cd2207    call    #0722
0875  cd7e06    call    #067e
0878  3aa702    ld      a,(#02a7)
087b  fe01      cp      #01
087d  caa208    jp      z,#08a2
0880  d5        push    de
0881  c5        push    bc
0882  e5        push    hl
0883  cdee05    call    #05ee
0886  e1        pop     hl
0887  115603    ld      de,#0356
088a  cd0705    call    #0507
088d  014000    ld      bc,#0040
0890  cd48c0    call    #c048
0893  af        xor     a
0894  324b01    ld      (#014b),a
0897  012c01    ld      bc,#012c
089a  cd48c0    call    #c048
089d  c1        pop     bc
089e  d1        pop     de
089f  c3c108    jp      #08c1
08a2  d5        push    de
08a3  c5        push    bc
08a4  e5        push    hl
08a5  cdee05    call    #05ee
08a8  e1        pop     hl
08a9  114903    ld      de,#0349
08ac  cd0705    call    #0507
08af  014000    ld      bc,#0040
08b2  cd48c0    call    #c048
08b5  af        xor     a
08b6  324b01    ld      (#014b),a
08b9  012c01    ld      bc,#012c
08bc  cd48c0    call    #c048
08bf  c1        pop     bc
08c0  d1        pop     de
08c1  e1        pop     hl
08c2  c35708    jp      #0857
08c5  c5        push    bc
08c6  e5        push    hl
08c7  21a802    ld      hl,#02a8
08ca  3aa702    ld      a,(#02a7)
08cd  fe01      cp      #01
08cf  caf408    jp      z,#08f4
08d2  d5        push    de
08d3  3a2401    ld      a,(#0124)
08d6  86        add     a,(hl)
08d7  322401    ld      (#0124),a
08da  11bc86    ld      de,#86bc
08dd  e5        push    hl
08de  0e00      ld      c,#00
08e0  cd3fc0    call    #c03f
08e3  e1        pop     hl
08e4  3a2301    ld      a,(#0123)
08e7  96        sub     (hl)
08e8  322301    ld      (#0123),a
08eb  11bc83    ld      de,#83bc
08ee  cd3fc0    call    #c03f
08f1  c31309    jp      #0913
08f4  d5        push    de
08f5  3a2301    ld      a,(#0123)
08f8  86        add     a,(hl)
08f9  322301    ld      (#0123),a
08fc  11bc83    ld      de,#83bc
08ff  0e00      ld      c,#00
0901  e5        push    hl
0902  cd3fc0    call    #c03f
0905  e1        pop     hl
0906  3a2401    ld      a,(#0124)
0909  96        sub     (hl)
090a  322401    ld      (#0124),a
090d  11bc86    ld      de,#86bc
0910  cd3fc0    call    #c03f
0913  d1        pop     de
0914  212301    ld      hl,#0123
0917  3a2401    ld      a,(#0124)
091a  86        add     a,(hl)
091b  fe40      cp      #40
091d  e1        pop     hl
091e  c1        pop     bc
091f  ca7709    jp      z,#0977
0922  7b        ld      a,e
0923  fe00      cp      #00
0925  c29207    jp      nz,#0792
0928  3aa802    ld      a,(#02a8)
092b  fe00      cp      #00
092d  caba07    jp      z,#07ba
0930  3aa902    ld      a,(#02a9)
0933  fe00      cp      #00
0935  ca5309    jp      z,#0953
0938  3e00      ld      a,#00
093a  32a802    ld      (#02a8),a
093d  32a902    ld      (#02a9),a
0940  3e01      ld      a,#01
0942  32a602    ld      (#02a6),a
0945  3e02      ld      a,#02
0947  32a702    ld      (#02a7),a
094a  cd4a0a    call    #0a4a
094d  ca3c0c    jp      z,#0c3c
0950  c37e07    jp      #077e
0953  3e00      ld      a,#00
0955  32a802    ld      (#02a8),a
0958  3e01      ld      a,#01
095a  32a702    ld      (#02a7),a
095d  32a902    ld      (#02a9),a
0960  3e02      ld      a,#02
0962  32a602    ld      (#02a6),a
0965  cdaa03    call    #03aa
0968  01dc05    ld      bc,#05dc
096b  cd48c0    call    #c048
096e  cd4a0a    call    #0a4a
0971  ca3c0c    jp      z,#0c3c
0974  c37e07    jp      #077e
0977  7b        ld      a,e
0978  fe00      cp      #00
097a  c29207    jp      nz,#0792
097d  3a2401    ld      a,(#0124)
0980  212301    ld      hl,#0123
0983  be        cp      (hl)
0984  d2a909    jp      nc,#09a9
0987  21ae0c    ld      hl,#0cae
098a  223701    ld      (#0137),hl
098d  21130d    ld      hl,#0d13
0990  224001    ld      (#0140),hl
0993  3e7d      ld      a,#7d
0995  323901    ld      (#0139),a
0998  3e79      ld      a,#79
099a  324201    ld      (#0142),a
099d  01204e    ld      bc,#4e20
09a0  cd48c0    call    #c048
09a3  cd4ec0    call    #c04e
09a6  c37807    jp      #0778
09a9  21ea0e    ld      hl,#0eea
09ac  223701    ld      (#0137),hl
09af  21890f    ld      hl,#0f89
09b2  224001    ld      (#0140),hl
09b5  3e7d      ld      a,#7d
09b7  323901    ld      (#0139),a
09ba  3e79      ld      a,#79
09bc  324201    ld      (#0142),a
09bf  c39d09    jp      #099d
09c2  3ac702    ld      a,(#02c7)
09c5  d630      sub     #30
09c7  6f        ld      l,a
09c8  3e08      ld      a,#08
09ca  95        sub     l
09cb  4f        ld      c,a
09cc  e5        push    hl
09cd  c5        push    bc
09ce  3ac802    ld      a,(#02c8)
09d1  d630      sub     #30
09d3  c1        pop     bc
09d4  5f        ld      e,a
09d5  d601      sub     #01
09d7  cd2ac0    call    #c02a
09da  e5        push    hl
09db  c1        pop     bc
09dc  e1        pop     hl
09dd  c5        push    bc
09de  4d        ld      c,l
09df  7b        ld      a,e
09e0  cd2ac0    call    #c02a
09e3  c1        pop     bc
09e4  79        ld      a,c
09e5  85        add     a,l
09e6  c37e06    jp      #067e
09e9  47        ld      b,a
09ea  cd6007    call    #0760
09ed  fe00      cp      #00
09ef  3aba02    ld      a,(#02ba)
09f2  32ab02    ld      (#02ab),a
09f5  c0        ret     nz
 
09f6  1e08      ld      e,#08
09f8  21c902    ld      hl,#02c9
09fb  78        ld      a,b
09fc  86        add     a,(hl)
09fd  e5        push    hl
09fe  4f        ld      c,a
09ff  cd6007    call    #0760
0a02  21a602    ld      hl,#02a6
0a05  be        cp      (hl)
0a06  e1        pop     hl
0a07  ca100a    jp      z,#0a10
0a0a  23        inc     hl
0a0b  1d        dec     e
0a0c  c2fb09    jp      nz,#09fb
0a0f  c9        ret     
 
0a10  1d        dec     e
0a11  79        ld      a,c
0a12  e5        push    hl
0a13  86        add     a,(hl)
0a14  4f        ld      c,a
0a15  cd6007    call    #0760
0a18  21a602    ld      hl,#02a6
0a1b  be        cp      (hl)
0a1c  e1        pop     hl
0a1d  ca110a    jp      z,#0a11
0a20  e5        push    hl
0a21  21a702    ld      hl,#02a7
0a24  be        cp      (hl)
0a25  e1        pop     hl
0a26  23        inc     hl
0a27  c23f0a    jp      nz,#0a3f
0a2a  2b        dec     hl
0a2b  79        ld      a,c
0a2c  96        sub     (hl)
0a2d  4f        ld      c,a
0a2e  b8        cp      b
0a2f  23        inc     hl
0a30  ca3f0a    jp      z,#0a3f
0a33  2b        dec     hl
0a34  3aab02    ld      a,(#02ab)
0a37  c601      add     a,#01
0a39  32ab02    ld      (#02ab),a
0a3c  c32b0a    jp      #0a2b
0a3f  7b        ld      a,e
0a40  fe00      cp      #00
0a42  c2fb09    jp      nz,#09fb
0a45  c9        ret     
 
0a46  0631      ld      b,#31
0a48  0c        inc     c
0a49  c9        ret     
 
0a4a  0e31      ld      c,#31
0a4c  0631      ld      b,#31
0a4e  af        xor     a
0a4f  32ab02    ld      (#02ab),a
0a52  79        ld      a,c
0a53  32c802    ld      (#02c8),a
0a56  78        ld      a,b
0a57  32c702    ld      (#02c7),a
0a5a  cdc209    call    #09c2
0a5d  cde909    call    #09e9
0a60  3ac702    ld      a,(#02c7)
0a63  47        ld      b,a
0a64  04        inc     b
0a65  78        ld      a,b
0a66  fe39      cp      #39
0a68  3ac802    ld      a,(#02c8)
0a6b  4f        ld      c,a
0a6c  cc460a    call    z,#0a46
0a6f  3aab02    ld      a,(#02ab)
0a72  fe00      cp      #00
0a74  c0        ret     nz
 
0a75  79        ld      a,c
0a76  fe39      cp      #39
0a78  c8        ret     z
 
0a79  c3520a    jp      #0a52
0a7c  d5        push    de
0a7d  e5        push    hl
0a7e  e5        push    hl
0a7f  7e        ld      a,(hl)
0a80  2a7302    ld      hl,(#0273)
0a83  77        ld      (hl),a
0a84  23        inc     hl
0a85  eb        ex      de,hl
0a86  e1        pop     hl
0a87  23        inc     hl
0a88  7e        ld      a,(hl)
0a89  e5        push    hl
0a8a  eb        ex      de,hl
0a8b  77        ld      (hl),a
0a8c  23        inc     hl
0a8d  eb        ex      de,hl
0a8e  e1        pop     hl
0a8f  23        inc     hl
0a90  7e        ld      a,(hl)
0a91  e5        push    hl
0a92  eb        ex      de,hl
0a93  77        ld      (hl),a
0a94  23        inc     hl
0a95  eb        ex      de,hl
0a96  e1        pop     hl
0a97  23        inc     hl
0a98  7e        ld      a,(hl)
0a99  eb        ex      de,hl
0a9a  77        ld      (hl),a
0a9b  23        inc     hl
0a9c  227302    ld      (#0273),hl
0a9f  e1        pop     hl
0aa0  d1        pop     de
0aa1  3aaa02    ld      a,(#02aa)
0aa4  c601      add     a,#01
0aa6  32aa02    ld      (#02aa),a
0aa9  c9        ret     
 
0aaa  cde105    call    #05e1
0aad  3abd02    ld      a,(#02bd)
0ab0  4f        ld      c,a
0ab1  47        ld      b,a
0ab2  217502    ld      hl,#0275
0ab5  227302    ld      (#0273),hl
0ab8  3e00      ld      a,#00
0aba  32aa02    ld      (#02aa),a
0abd  32c402    ld      (#02c4),a
0ac0  3e63      ld      a,#63
0ac2  32ad02    ld      (#02ad),a
0ac5  32ae02    ld      (#02ae),a
0ac8  3e02      ld      a,#02
0aca  32af02    ld      (#02af),a
0acd  79        ld      a,c
0ace  32c802    ld      (#02c8),a
0ad1  78        ld      a,b
0ad2  32c702    ld      (#02c7),a
0ad5  cdc209    call    #09c2
0ad8  32ac02    ld      (#02ac),a
0adb  cde909    call    #09e9
0ade  3ac702    ld      a,(#02c7)
0ae1  47        ld      b,a
0ae2  04        inc     b
0ae3  78        ld      a,b
0ae4  fe39      cp      #39
0ae6  3ac802    ld      a,(#02c8)
0ae9  4f        ld      c,a
0aea  cc460a    call    z,#0a46
0aed  3aab02    ld      a,(#02ab)
0af0  fe00      cp      #00
0af2  ca390b    jp      z,#0b39
0af5  3aac02    ld      a,(#02ac)
0af8  21d102    ld      hl,#02d1
0afb  be        cp      (hl)
0afc  23        inc     hl
0afd  c2fb0a    jp      nz,#0afb
0b00  56        ld      d,(hl)
0b01  3a2301    ld      a,(#0123)
0b04  212401    ld      hl,#0124
0b07  86        add     a,(hl)
0b08  21b002    ld      hl,#02b0
0b0b  be        cp      (hl)
0b0c  d2420b    jp      nc,#0b42
0b0f  3aad02    ld      a,(#02ad)
0b12  ba        cp      d
0b13  dacd0a    jp      c,#0acd
0b16  7a        ld      a,d
0b17  32ad02    ld      (#02ad),a
0b1a  2a7302    ld      hl,(#0273)
0b1d  72        ld      (hl),d
0b1e  23        inc     hl
0b1f  3aab02    ld      a,(#02ab)
0b22  77        ld      (hl),a
0b23  23        inc     hl
0b24  3ac702    ld      a,(#02c7)
0b27  77        ld      (hl),a
0b28  23        inc     hl
0b29  3ac802    ld      a,(#02c8)
0b2c  77        ld      (hl),a
0b2d  23        inc     hl
0b2e  227302    ld      (#0273),hl
0b31  3aaa02    ld      a,(#02aa)
0b34  c601      add     a,#01
0b36  32aa02    ld      (#02aa),a
0b39  79        ld      a,c
0b3a  fe39      cp      #39
0b3c  ca610b    jp      z,#0b61
0b3f  c3cd0a    jp      #0acd
0b42  3aab02    ld      a,(#02ab)
0b45  21c402    ld      hl,#02c4
0b48  be        cp      (hl)
0b49  dacd0a    jp      c,#0acd
0b4c  32c402    ld      (#02c4),a
0b4f  3aae02    ld      a,(#02ae)
0b52  ba        cp      d
0b53  da160b    jp      c,#0b16
0b56  7a        ld      a,d
0b57  32ae02    ld      (#02ae),a
0b5a  c3160b    jp      #0b16
0b5d  23        inc     hl
0b5e  c9        ret     
 
0b5f  2b        dec     hl
0b60  c9        ret     
 
0b61  217502    ld      hl,#0275
0b64  227302    ld      (#0273),hl
0b67  3aaa02    ld      a,(#02aa)
0b6a  fe00      cp      #00
0b6c  ca3c0c    jp      z,#0c3c
0b6f  5f        ld      e,a
0b70  212301    ld      hl,#0123
0b73  3a2401    ld      a,(#0124)
0b76  86        add     a,(hl)
0b77  21b002    ld      hl,#02b0
0b7a  be        cp      (hl)
0b7b  3ac402    ld      a,(#02c4)
0b7e  d2840b    jp      nc,#0b84
0b81  3aad02    ld      a,(#02ad)
0b84  21aa02    ld      hl,#02aa
0b87  3600      ld      (hl),#00
0b89  217502    ld      hl,#0275
0b8c  f5        push    af
0b8d  3aaf02    ld      a,(#02af)
0b90  fe01      cp      #01
0b92  caa50b    jp      z,#0ba5
0b95  e5        push    hl
0b96  3a2301    ld      a,(#0123)
0b99  212401    ld      hl,#0124
0b9c  86        add     a,(hl)
0b9d  21b002    ld      hl,#02b0
0ba0  be        cp      (hl)
0ba1  e1        pop     hl
0ba2  d45d0b    call    nc,#0b5d
0ba5  f1        pop     af
0ba6  be        cp      (hl)
0ba7  f5        push    af
0ba8  3aaf02    ld      a,(#02af)
0bab  fe01      cp      #01
0bad  cac00b    jp      z,#0bc0
0bb0  e5        push    hl
0bb1  3a2301    ld      a,(#0123)
0bb4  212401    ld      hl,#0124
0bb7  86        add     a,(hl)
0bb8  21b002    ld      hl,#02b0
0bbb  be        cp      (hl)
0bbc  e1        pop     hl
0bbd  d45f0b    call    nc,#0b5f
0bc0  f1        pop     af
0bc1  f5        push    af
0bc2  cc7c0a    call    z,#0a7c
0bc5  23        inc     hl
0bc6  23        inc     hl
0bc7  23        inc     hl
0bc8  23        inc     hl
0bc9  f1        pop     af
0bca  1d        dec     e
0bcb  c28c0b    jp      nz,#0b8c
0bce  3a2301    ld      a,(#0123)
0bd1  212401    ld      hl,#0124
0bd4  86        add     a,(hl)
0bd5  21b002    ld      hl,#02b0
0bd8  be        cp      (hl)
0bd9  daf60b    jp      c,#0bf6
0bdc  3aae02    ld      a,(#02ae)
0bdf  32ad02    ld      (#02ad),a
0be2  3aaf02    ld      a,(#02af)
0be5  3d        dec     a
0be6  32af02    ld      (#02af),a
0be9  fe00      cp      #00
0beb  caf60b    jp      z,#0bf6
0bee  3aaa02    ld      a,(#02aa)
0bf1  5f        ld      e,a
0bf2  57        ld      d,a
0bf3  c3810b    jp      #0b81
0bf6  3aaa02    ld      a,(#02aa)
0bf9  fe00      cp      #00
0bfb  cc3a0c    call    z,#0c3a
0bfe  32aa02    ld      (#02aa),a
0c01  2a0701    ld      hl,(#0107)
0c04  7d        ld      a,l
0c05  c653      add     a,#53
0c07  6f        ld      l,a
0c08  220701    ld      (#0107),hl
0c0b  e60f      and     #0f
0c0d  21aa02    ld      hl,#02aa
0c10  34        inc     (hl)
0c11  be        cp      (hl)
0c12  35        dec     (hl)
0c13  d2010c    jp      nc,#0c01
0c16  fe00      cp      #00
0c18  ca010c    jp      z,#0c01
0c1b  47        ld      b,a
0c1c  217502    ld      hl,#0275
0c1f  227302    ld      (#0273),hl
0c22  23        inc     hl
0c23  23        inc     hl
0c24  7e        ld      a,(hl)
0c25  32c702    ld      (#02c7),a
0c28  23        inc     hl
0c29  7e        ld      a,(hl)
0c2a  32c802    ld      (#02c8),a
0c2d  23        inc     hl
0c2e  23        inc     hl
0c2f  23        inc     hl
0c30  05        dec     b
0c31  c2240c    jp      nz,#0c24
0c34  3ac702    ld      a,(#02c7)
0c37  c31706    jp      #0617
0c3a  7a        ld      a,d
0c3b  c9        ret     
 
0c3c  110c80    ld      de,#800c
0c3f  01000d    ld      bc,#0d00
0c42  c5        push    bc
0c43  cd42c0    call    #c042
0c46  c1        pop     bc
0c47  110f80    ld      de,#800f
0c4a  cd42c0    call    #c042
0c4d  018813    ld      bc,#1388
0c50  cd48c0    call    #c048
0c53  c37d09    jp      #097d
0c56  310002    ld      sp,#0200
0c59  3ab102    ld      a,(#02b1)
0c5c  a7        and     a
0c5d  c2770c    jp      nz,#0c77
0c60  3ec3      ld      a,#c3
0c62  323800    ld      (#0038),a
0c65  2124c0    ld      hl,#c024
0c68  223900    ld      (#0039),hl
0c6b  fb        ei      
0c6c  af        xor     a
0c6d  320601    ld      (#0106),a
0c70  321b01    ld      (#011b),a
0c73  3c        inc     a
0c74  32b102    ld      (#02b1),a
0c77  3e88      ld      a,#88
0c79  d380      out     (#80),a
0c7b  3aba02    ld      a,(#02ba)
0c7e  32a502    ld      (#02a5),a
0c81  c37807    jp      #0778
0c84  3e01      ld      a,#01
0c86  32a502    ld      (#02a5),a
0c89  3abc02    ld      a,(#02bc)
0c8c  32b002    ld      (#02b0),a
0c8f  c37807    jp      #0778
0c92  3e01      ld      a,#01
0c94  32a502    ld      (#02a5),a
0c97  3ac102    ld      a,(#02c1)
0c9a  32b002    ld      (#02b0),a
0c9d  c37807    jp      #0778
0ca0  3e01      ld      a,#01
0ca2  32a502    ld      (#02a5),a
0ca5  3ac002    ld      a,(#02c0)
0ca8  32b002    ld      (#02b0),a
0cab  c37807    jp      #0778
0cae  0f        rrca    
0caf  80        add     a,b
0cb0  2000      jr      nz,#0cb2        ; (0)
0cb2  47        ld      b,a
0cb3  1050      djnz    #0d05           ; (80)
0cb5  104b      djnz    #0d02           ; (75)
0cb7  1050      djnz    #0d09           ; (80)
0cb9  1052      djnz    #0d0d           ; (82)
0cbb  1049      djnz    #0d06           ; (73)
0cbd  1052      djnz    #0d11           ; (82)
0cbf  2050      jr      nz,#0d11        ; (80)
0cc1  104b      djnz    #0d0e           ; (75)
0cc3  1049      djnz    #0d0e           ; (73)
0cc5  104b      djnz    #0d12           ; (75)
0cc7  1050      djnz    #0d19           ; (80)
0cc9  40        ld      b,b
0cca  47        ld      b,a
0ccb  1050      djnz    #0d1d           ; (80)
0ccd  104b      djnz    #0d1a           ; (75)
0ccf  1050      djnz    #0d21           ; (80)
0cd1  1052      djnz    #0d25           ; (82)
0cd3  1049      djnz    #0d1e           ; (73)
0cd5  1052      djnz    #0d29           ; (82)
0cd7  2050      jr      nz,#0d29        ; (80)
0cd9  104b      djnz    #0d26           ; (75)
0cdb  1049      djnz    #0d26           ; (73)
0cdd  104b      djnz    #0d2a           ; (75)
0cdf  1050      djnz    #0d31           ; (80)
0ce1  40        ld      b,b
0ce2  54        ld      d,h
0ce3  1054      djnz    #0d39           ; (84)
0ce5  1054      djnz    #0d3b           ; (84)
0ce7  08        ex      af,af'
0ce8  54        ld      d,h
0ce9  1854      jr      #0d3f           ; (84)
0ceb  1054      djnz    #0d41           ; (84)
0ced  1054      djnz    #0d43           ; (84)
0cef  2054      jr      nz,#0d45        ; (84)
0cf1  1052      djnz    #0d45           ; (82)
0cf3  1050      djnz    #0d45           ; (80)
0cf5  1052      djnz    #0d49           ; (82)
0cf7  1054      djnz    #0d4d           ; (84)
0cf9  40        ld      b,b
0cfa  54        ld      d,h
0cfb  1054      djnz    #0d51           ; (84)
0cfd  1055      djnz    #0d54           ; (85)
0cff  1054      djnz    #0d55           ; (84)
0d01  1052      djnz    #0d55           ; (82)
0d03  1049      djnz    #0d4e           ; (73)
0d05  1052      djnz    #0d59           ; (82)
0d07  2050      jr      nz,#0d59        ; (80)
0d09  104b      djnz    #0d56           ; (75)
0d0b  1049      djnz    #0d56           ; (73)
0d0d  104b      djnz    #0d5a           ; (75)
0d0f  1050      djnz    #0d61           ; (80)
0d11  40        ld      b,b
0d12  ee0f      xor     #0f
0d14  80        add     a,b
0d15  2000      jr      nz,#0d17        ; (0)
0d17  44        ld      b,h
0d18  1047      djnz    #0d61           ; (71)
0d1a  1000      djnz    #0d1c           ; (0)
0d1c  1047      djnz    #0d65           ; (71)
0d1e  1045      djnz    #0d65           ; (69)
0d20  1049      djnz    #0d6b           ; (73)
0d22  1000      djnz    #0d24           ; (0)
0d24  1049      djnz    #0d6f           ; (73)
0d26  1047      djnz    #0d6f           ; (71)
0d28  104b      djnz    #0d75           ; (75)
0d2a  1000      djnz    #0d2c           ; (0)
0d2c  104b      djnz    #0d79           ; (75)
0d2e  1044      djnz    #0d74           ; (68)
0d30  1047      djnz    #0d79           ; (71)
0d32  2047      jr      nz,#0d7b        ; (71)
0d34  1044      djnz    #0d7a           ; (68)
0d36  1047      djnz    #0d7f           ; (71)
0d38  1000      djnz    #0d3a           ; (0)
0d3a  1047      djnz    #0d83           ; (71)
0d3c  1045      djnz    #0d83           ; (69)
0d3e  1049      djnz    #0d89           ; (73)
0d40  1000      djnz    #0d42           ; (0)
0d42  1049      djnz    #0d8d           ; (73)
0d44  1047      djnz    #0d8d           ; (71)
0d46  104b      djnz    #0d93           ; (75)
0d48  1000      djnz    #0d4a           ; (0)
0d4a  104b      djnz    #0d97           ; (75)
0d4c  1044      djnz    #0d92           ; (68)
0d4e  1047      djnz    #0d97           ; (71)
0d50  2047      jr      nz,#0d99        ; (71)
0d52  1047      djnz    #0d9b           ; (71)
0d54  1050      djnz    #0da6           ; (80)
0d56  1000      djnz    #0d58           ; (0)
0d58  1050      djnz    #0daa           ; (80)
0d5a  1049      djnz    #0da5           ; (73)
0d5c  1050      djnz    #0dae           ; (80)
0d5e  1000      djnz    #0d60           ; (0)
0d60  1050      djnz    #0db2           ; (80)
0d62  104b      djnz    #0daf           ; (75)
0d64  1052      djnz    #0db8           ; (82)
0d66  1000      djnz    #0d68           ; (0)
0d68  1052      djnz    #0dbc           ; (82)
0d6a  1047      djnz    #0db3           ; (71)
0d6c  1050      djnz    #0dbe           ; (80)
0d6e  1000      djnz    #0d70           ; (0)
0d70  1050      djnz    #0dc2           ; (80)
0d72  1049      djnz    #0dbd           ; (73)
0d74  1050      djnz    #0dc6           ; (80)
0d76  1000      djnz    #0d78           ; (0)
0d78  1050      djnz    #0dca           ; (80)
0d7a  1049      djnz    #0dc5           ; (73)
0d7c  1052      djnz    #0dd0           ; (82)
0d7e  1000      djnz    #0d80           ; (0)
0d80  1052      djnz    #0dd4           ; (82)
0d82  1047      djnz    #0dcb           ; (71)
0d84  104b      djnz    #0dd1           ; (75)
0d86  1000      djnz    #0d88           ; (0)
0d88  104b      djnz    #0dd5           ; (75)
0d8a  1044      djnz    #0dd0           ; (68)
0d8c  1047      djnz    #0dd5           ; (71)
0d8e  2047      jr      nz,#0dd7        ; (71)
0d90  10ee      djnz    #0d80           ; (-18)
0d92  0f        rrca    
0d93  80        add     a,b
0d94  2000      jr      nz,#0d96        ; (0)
0d96  62        ld      h,d
0d97  1864      jr      #0dfd           ; (100)
0d99  1865      jr      #0e00           ; (101)
0d9b  08        ex      af,af'
0d9c  67        ld      h,a
0d9d  08        ex      af,af'
0d9e  65        ld      h,l
0d9f  09        add     hl,bc
0da0  64        ld      h,h
0da1  08        ex      af,af'
0da2  62        ld      h,d
0da3  08        ex      af,af'
0da4  64        ld      h,h
0da5  09        add     hl,bc
0da6  65        ld      h,l
0da7  08        ex      af,af'
0da8  67        ld      h,a
0da9  08        ex      af,af'
0daa  65        ld      h,l
0dab  09        add     hl,bc
0dac  64        ld      h,h
0dad  08        ex      af,af'
0dae  62        ld      h,d
0daf  08        ex      af,af'
0db0  64        ld      h,h
0db1  09        add     hl,bc
0db2  65        ld      h,l
0db3  08        ex      af,af'
0db4  64        ld      h,h
0db5  08        ex      af,af'
0db6  62        ld      h,d
0db7  09        add     hl,bc
0db8  64        ld      h,h
0db9  08        ex      af,af'
0dba  62        ld      h,d
0dbb  08        ex      af,af'
0dbc  60        ld      h,b
0dbd  09        add     hl,bc
0dbe  62        ld      h,d
0dbf  08        ex      af,af'
0dc0  60        ld      h,b
0dc1  08        ex      af,af'
0dc2  5b        ld      e,e
0dc3  09        add     hl,bc
0dc4  60        ld      h,b
0dc5  08        ex      af,af'
0dc6  5b        ld      e,e
0dc7  08        ex      af,af'
0dc8  58        ld      e,b
0dc9  09        add     hl,bc
0dca  00        nop     
0dcb  1800      jr      #0dcd           ; (0)
0dcd  90        sub     b
0dce  64        ld      h,h
0dcf  1870      jr      #0e41           ; (112)
0dd1  48        ld      c,b
0dd2  6b        ld      l,e
0dd3  0c        inc     c
0dd4  69        ld      l,c
0dd5  0c        inc     c
0dd6  69        ld      l,c
0dd7  48        ld      c,b
0dd8  68        ld      l,b
0dd9  0c        inc     c
0dda  6b        ld      l,e
0ddb  0c        inc     c
0ddc  64        ld      h,h
0ddd  a8        xor     b
0dde  64        ld      h,h
0ddf  1870      jr      #0e51           ; (112)
0de1  48        ld      c,b
0de2  6b        ld      l,e
0de3  0c        inc     c
0de4  69        ld      l,c
0de5  0c        inc     c
0de6  69        ld      l,c
0de7  48        ld      c,b
0de8  67        ld      h,a
0de9  0c        inc     c
0dea  6b        ld      l,e
0deb  0c        inc     c
0dec  64        ld      h,h
0ded  90        sub     b
0dee  00        nop     
0def  3c        inc     a
0df0  65        ld      h,l
0df1  24        inc     h
0df2  00        nop     
0df3  0c        inc     c
0df4  59        ld      e,c
0df5  0c        inc     c
0df6  62        ld      h,d
0df7  0c        inc     c
0df8  65        ld      h,l
0df9  0c        inc     c
0dfa  69        ld      l,c
0dfb  24        inc     h
0dfc  62        ld      h,d
0dfd  0c        inc     c
0dfe  62        ld      h,d
0dff  0c        inc     c
0e00  00        nop     
0e01  3064      jr      nc,#0e67        ; (100)
0e03  24        inc     h
0e04  00        nop     
0e05  0c        inc     c
0e06  57        ld      d,a
0e07  0c        inc     c
0e08  60        ld      h,b
0e09  0c        inc     c
0e0a  64        ld      h,h
0e0b  0c        inc     c
0e0c  67        ld      h,a
0e0d  24        inc     h
0e0e  60        ld      h,b
0e0f  0c        inc     c
0e10  60        ld      h,b
0e11  0c        inc     c
0e12  00        nop     
0e13  3062      jr      nc,#0e77        ; (98)
0e15  0c        inc     c
0e16  62        ld      h,d
0e17  1800      jr      #0e19           ; (0)
0e19  0c        inc     c
0e1a  5b        ld      e,e
0e1b  0c        inc     c
0e1c  62        ld      h,d
0e1d  0c        inc     c
0e1e  64        ld      h,h
0e1f  0c        inc     c
0e20  65        ld      h,l
0e21  24        inc     h
0e22  5b        ld      e,e
0e23  0c        inc     c
0e24  5b        ld      e,e
0e25  0c        inc     c
0e26  00        nop     
0e27  84        add     a,h
0e28  ee0f      xor     #0f
0e2a  80        add     a,b
0e2b  2000      jr      nz,#0e2d        ; (0)
0e2d  00        nop     
0e2e  78        ld      a,b
0e2f  00        nop     
0e30  78        ld      a,b
0e31  49        ld      c,c
0e32  0c        inc     c
0e33  54        ld      d,h
0e34  0c        inc     c
0e35  00        nop     
0e36  0c        inc     c
0e37  54        ld      d,h
0e38  0c        inc     c
0e39  49        ld      c,c
0e3a  0c        inc     c
0e3b  54        ld      d,h
0e3c  0c        inc     c
0e3d  50        ld      d,b
0e3e  0c        inc     c
0e3f  54        ld      d,h
0e40  0c        inc     c
0e41  49        ld      c,c
0e42  0c        inc     c
0e43  54        ld      d,h
0e44  0c        inc     c
0e45  00        nop     
0e46  0c        inc     c
0e47  54        ld      d,h
0e48  0c        inc     c
0e49  54        ld      d,h
0e4a  0c        inc     c
0e4b  00        nop     
0e4c  24        inc     h
0e4d  49        ld      c,c
0e4e  0c        inc     c
0e4f  54        ld      d,h
0e50  0c        inc     c
0e51  00        nop     
0e52  0c        inc     c
0e53  54        ld      d,h
0e54  0c        inc     c
0e55  00        nop     
0e56  0c        inc     c
0e57  54        ld      d,h
0e58  0c        inc     c
0e59  00        nop     
0e5a  1855      jr      #0eb1           ; (85)
0e5c  0c        inc     c
0e5d  59        ld      e,c
0e5e  0c        inc     c
0e5f  00        nop     
0e60  0c        inc     c
0e61  59        ld      e,c
0e62  0c        inc     c
0e63  00        nop     
0e64  0c        inc     c
0e65  59        ld      e,c
0e66  0c        inc     c
0e67  54        ld      d,h
0e68  1849      jr      #0eb3           ; (73)
0e6a  0c        inc     c
0e6b  54        ld      d,h
0e6c  0c        inc     c
0e6d  00        nop     
0e6e  0c        inc     c
0e6f  54        ld      d,h
0e70  0c        inc     c
0e71  00        nop     
0e72  0c        inc     c
0e73  54        ld      d,h
0e74  0c        inc     c
0e75  00        nop     
0e76  0c        inc     c
0e77  54        ld      d,h
0e78  0c        inc     c
0e79  4b        ld      c,e
0e7a  0c        inc     c
0e7b  50        ld      d,b
0e7c  0c        inc     c
0e7d  52        ld      d,d
0e7e  0c        inc     c
0e7f  54        ld      d,h
0e80  3049      jr      nc,#0ecb        ; (73)
0e82  0c        inc     c
0e83  54        ld      d,h
0e84  0c        inc     c
0e85  00        nop     
0e86  0c        inc     c
0e87  54        ld      d,h
0e88  0c        inc     c
0e89  00        nop     
0e8a  0c        inc     c
0e8b  54        ld      d,h
0e8c  0c        inc     c
0e8d  00        nop     
0e8e  1855      jr      #0ee5           ; (85)
0e90  0c        inc     c
0e91  59        ld      e,c
0e92  0c        inc     c
0e93  00        nop     
0e94  0c        inc     c
0e95  59        ld      e,c
0e96  0c        inc     c
0e97  00        nop     
0e98  0c        inc     c
0e99  59        ld      e,c
0e9a  0c        inc     c
0e9b  00        nop     
0e9c  1850      jr      #0eee           ; (80)
0e9e  0c        inc     c
0e9f  57        ld      d,a
0ea0  0c        inc     c
0ea1  00        nop     
0ea2  0c        inc     c
0ea3  57        ld      d,a
0ea4  0c        inc     c
0ea5  50        ld      d,b
0ea6  0c        inc     c
0ea7  57        ld      d,a
0ea8  0c        inc     c
0ea9  4b        ld      c,e
0eaa  0c        inc     c
0eab  57        ld      d,a
0eac  0c        inc     c
0ead  59        ld      e,c
0eae  0c        inc     c
0eaf  54        ld      d,h
0eb0  0c        inc     c
0eb1  00        nop     
0eb2  0c        inc     c
0eb3  54        ld      d,h
0eb4  0c        inc     c
0eb5  54        ld      d,h
0eb6  0c        inc     c
0eb7  54        ld      d,h
0eb8  0c        inc     c
0eb9  55        ld      d,l
0eba  0c        inc     c
0ebb  57        ld      d,a
0ebc  0c        inc     c
0ebd  59        ld      e,c
0ebe  24        inc     h
0ebf  52        ld      d,d
0ec0  0c        inc     c
0ec1  52        ld      d,d
0ec2  60        ld      h,b
0ec3  00        nop     
0ec4  0c        inc     c
0ec5  52        ld      d,d
0ec6  0c        inc     c
0ec7  54        ld      d,h
0ec8  0c        inc     c
0ec9  55        ld      d,l
0eca  0c        inc     c
0ecb  57        ld      d,a
0ecc  24        inc     h
0ecd  50        ld      d,b
0ece  0c        inc     c
0ecf  50        ld      d,b
0ed0  60        ld      h,b
0ed1  00        nop     
0ed2  0c        inc     c
0ed3  50        ld      d,b
0ed4  0c        inc     c
0ed5  52        ld      d,d
0ed6  0c        inc     c
0ed7  54        ld      d,h
0ed8  0c        inc     c
0ed9  55        ld      d,l
0eda  24        inc     h
0edb  4b        ld      c,e
0edc  0c        inc     c
0edd  4b        ld      c,e
0ede  60        ld      h,b
0edf  00        nop     
0ee0  0c        inc     c
0ee1  4b        ld      c,e
0ee2  0c        inc     c
0ee3  50        ld      d,b
0ee4  0c        inc     c
0ee5  52        ld      d,d
0ee6  0c        inc     c
0ee7  54        ld      d,h
0ee8  60        ld      h,b
0ee9  ee0f      xor     #0f
0eeb  80        add     a,b
0eec  2000      jr      nz,#0eee        ; (0)
0eee  00        nop     
0eef  1854      jr      #0f45           ; (84)
0ef1  04        inc     b
0ef2  53        ld      d,e
0ef3  04        inc     b
0ef4  54        ld      d,h
0ef5  08        ex      af,af'
0ef6  54        ld      d,h
0ef7  04        inc     b
0ef8  53        ld      d,e
0ef9  04        inc     b
0efa  54        ld      d,h
0efb  08        ex      af,af'
0efc  54        ld      d,h
0efd  04        inc     b
0efe  53        ld      d,e
0eff  04        inc     b
0f00  54        ld      d,h
0f01  08        ex      af,af'
0f02  52        ld      d,d
0f03  08        ex      af,af'
0f04  50        ld      d,b
0f05  08        ex      af,af'
0f06  54        ld      d,h
0f07  04        inc     b
0f08  53        ld      d,e
0f09  04        inc     b
0f0a  54        ld      d,h
0f0b  08        ex      af,af'
0f0c  54        ld      d,h
0f0d  04        inc     b
0f0e  53        ld      d,e
0f0f  04        inc     b
0f10  54        ld      d,h
0f11  08        ex      af,af'
0f12  54        ld      d,h
0f13  04        inc     b
0f14  53        ld      d,e
0f15  04        inc     b
0f16  54        ld      d,h
0f17  08        ex      af,af'
0f18  59        ld      e,c
0f19  08        ex      af,af'
0f1a  57        ld      d,a
0f1b  08        ex      af,af'
0f1c  57        ld      d,a
0f1d  04        inc     b
0f1e  54        ld      d,h
0f1f  04        inc     b
0f20  55        ld      d,l
0f21  08        ex      af,af'
0f22  59        ld      e,c
0f23  08        ex      af,af'
0f24  57        ld      d,a
0f25  08        ex      af,af'
0f26  57        ld      d,a
0f27  04        inc     b
0f28  52        ld      d,d
0f29  04        inc     b
0f2a  54        ld      d,h
0f2b  08        ex      af,af'
0f2c  59        ld      e,c
0f2d  08        ex      af,af'
0f2e  57        ld      d,a
0f2f  08        ex      af,af'
0f30  57        ld      d,a
0f31  04        inc     b
0f32  54        ld      d,h
0f33  04        inc     b
0f34  52        ld      d,d
0f35  08        ex      af,af'
0f36  5b        ld      e,e
0f37  08        ex      af,af'
0f38  00        nop     
0f39  08        ex      af,af'
0f3a  59        ld      e,c
0f3b  08        ex      af,af'
0f3c  57        ld      d,a
0f3d  04        inc     b
0f3e  56        ld      d,(hl)
0f3f  04        inc     b
0f40  57        ld      d,a
0f41  04        inc     b
0f42  59        ld      e,c
0f43  04        inc     b
0f44  57        ld      d,a
0f45  04        inc     b
0f46  55        ld      d,l
0f47  04        inc     b
0f48  54        ld      d,h
0f49  04        inc     b
0f4a  52        ld      d,d
0f4b  04        inc     b
0f4c  54        ld      d,h
0f4d  08        ex      af,af'
0f4e  54        ld      d,h
0f4f  04        inc     b
0f50  53        ld      d,e
0f51  04        inc     b
0f52  54        ld      d,h
0f53  08        ex      af,af'
0f54  54        ld      d,h
0f55  04        inc     b
0f56  53        ld      d,e
0f57  04        inc     b
0f58  54        ld      d,h
0f59  08        ex      af,af'
0f5a  52        ld      d,d
0f5b  08        ex      af,af'
0f5c  50        ld      d,b
0f5d  08        ex      af,af'
0f5e  54        ld      d,h
0f5f  04        inc     b
0f60  53        ld      d,e
0f61  04        inc     b
0f62  54        ld      d,h
0f63  08        ex      af,af'
0f64  54        ld      d,h
0f65  04        inc     b
0f66  53        ld      d,e
0f67  04        inc     b
0f68  54        ld      d,h
0f69  08        ex      af,af'
0f6a  54        ld      d,h
0f6b  04        inc     b
0f6c  53        ld      d,e
0f6d  04        inc     b
0f6e  54        ld      d,h
0f6f  08        ex      af,af'
0f70  59        ld      e,c
0f71  08        ex      af,af'
0f72  57        ld      d,a
0f73  08        ex      af,af'
0f74  57        ld      d,a
0f75  04        inc     b
0f76  54        ld      d,h
0f77  04        inc     b
0f78  52        ld      d,d
0f79  08        ex      af,af'
0f7a  59        ld      e,c
0f7b  08        ex      af,af'
0f7c  57        ld      d,a
0f7d  08        ex      af,af'
0f7e  5b        ld      e,e
0f7f  08        ex      af,af'
0f80  60        ld      h,b
0f81  08        ex      af,af'
0f82  00        nop     
0f83  08        ex      af,af'
0f84  60        ld      h,b
0f85  08        ex      af,af'
0f86  00        nop     
0f87  08        ex      af,af'
0f88  ee0f      xor     #0f
0f8a  80        add     a,b
0f8b  2000      jr      nz,#0f8d        ; (0)
0f8d  00        nop     
0f8e  2050      jr      nz,#0fe0        ; (80)
0f90  08        ex      af,af'
0f91  57        ld      d,a
0f92  08        ex      af,af'
0f93  54        ld      d,h
0f94  08        ex      af,af'
0f95  57        ld      d,a
0f96  08        ex      af,af'
0f97  50        ld      d,b
0f98  08        ex      af,af'
0f99  57        ld      d,a
0f9a  08        ex      af,af'
0f9b  54        ld      d,h
0f9c  08        ex      af,af'
0f9d  57        ld      d,a
0f9e  08        ex      af,af'
0f9f  50        ld      d,b
0fa0  08        ex      af,af'
0fa1  57        ld      d,a
0fa2  08        ex      af,af'
0fa3  54        ld      d,h
0fa4  08        ex      af,af'
0fa5  57        ld      d,a
0fa6  08        ex      af,af'
0fa7  50        ld      d,b
0fa8  08        ex      af,af'
0fa9  57        ld      d,a
0faa  08        ex      af,af'
0fab  54        ld      d,h
0fac  08        ex      af,af'
0fad  57        ld      d,a
0fae  08        ex      af,af'
0faf  50        ld      d,b
0fb0  08        ex      af,af'
0fb1  59        ld      e,c
0fb2  08        ex      af,af'
0fb3  55        ld      d,l
0fb4  08        ex      af,af'
0fb5  59        ld      e,c
0fb6  08        ex      af,af'
0fb7  50        ld      d,b
0fb8  08        ex      af,af'
0fb9  57        ld      d,a
0fba  08        ex      af,af'
0fbb  54        ld      d,h
0fbc  08        ex      af,af'
0fbd  57        ld      d,a
0fbe  08        ex      af,af'
0fbf  52        ld      d,d
0fc0  08        ex      af,af'
0fc1  5b        ld      e,e
0fc2  08        ex      af,af'
0fc3  57        ld      d,a
0fc4  08        ex      af,af'
0fc5  5b        ld      e,e
0fc6  08        ex      af,af'
0fc7  00        nop     
0fc8  2050      jr      nz,#101a        ; (80)
0fca  08        ex      af,af'
0fcb  57        ld      d,a
0fcc  08        ex      af,af'
0fcd  54        ld      d,h
0fce  08        ex      af,af'
0fcf  57        ld      d,a
0fd0  08        ex      af,af'
0fd1  50        ld      d,b
0fd2  08        ex      af,af'
0fd3  57        ld      d,a
0fd4  08        ex      af,af'
0fd5  54        ld      d,h
0fd6  08        ex      af,af'
0fd7  57        ld      d,a
0fd8  08        ex      af,af'
0fd9  50        ld      d,b
0fda  08        ex      af,af'
0fdb  57        ld      d,a
0fdc  08        ex      af,af'
0fdd  54        ld      d,h
0fde  08        ex      af,af'
0fdf  57        ld      d,a
0fe0  08        ex      af,af'
0fe1  50        ld      d,b
0fe2  08        ex      af,af'
0fe3  57        ld      d,a
0fe4  08        ex      af,af'
0fe5  54        ld      d,h
0fe6  08        ex      af,af'
0fe7  57        ld      d,a
0fe8  08        ex      af,af'
0fe9  52        ld      d,d
0fea  08        ex      af,af'
0feb  5b        ld      e,e
0fec  08        ex      af,af'
0fed  57        ld      d,a
0fee  08        ex      af,af'
0fef  5b        ld      e,e
0ff0  08        ex      af,af'
0ff1  54        ld      d,h
0ff2  08        ex      af,af'
0ff3  00        nop     
0ff4  08        ex      af,af'
0ff5  57        ld      d,a
0ff6  08        ex      af,af'
0ff7  00        nop     
0ff8  08        ex      af,af'
0ff9  ee0f      xor     #0f
0ffb  80        add     a,b
0ffc  2000      jr      nz,#0ffe        ; (0)
0ffe  70        ld      (hl),b
0fff  01eeff    ld      bc,#ffee
1002  ff        rst     #38
1003  ff        rst     #38
1004  ff        rst     #38
1005  ff        rst     #38
1006  ff        rst     #38
1007  ff        rst     #38
1008  ff        rst     #38
1009  ff        rst     #38
100a  ff        rst     #38
100b  ff        rst     #38
100c  ff        rst     #38
100d  ff        rst     #38
100e  ff        rst     #38
100f  ff        rst     #38