; Disassembly of the file "D:\Emerson\mc-1000\aplicativos cassete\GUERROBO.BIN"
;
; Created with dZ80 v1.31
;
; on Wednesday, 18 of April 2007 at 05:15 PM
;
0100  c30002    jp      #0200
0103  ff        rst     #38
0104  010800    ld      bc,#0008
0107  ff        rst     #38
0108  ff        rst     #38
0109  ff        rst     #38
010a  ff        rst     #38
010b  ff        rst     #38
010c  ff        rst     #38
010d  ff        rst     #38
010e  ff        rst     #38
010f  ff        rst     #38
0110  ff        rst     #38
0111  ff        rst     #38
0112  ff        rst     #38
0113  ff        rst     #38
0114  ff        rst     #38
0115  ff        rst     #38
0116  ff        rst     #38
0117  ff        rst     #38
0118  ff        rst     #38
0119  ff        rst     #38
011a  ff        rst     #38
011b  ff        rst     #38
011c  ff        rst     #38
011d  ff        rst     #38
011e  ff        rst     #38
011f  ff        rst     #38
0120  c9        ret     
 
0121  bd        cp      l
0122  05        dec     b
0123  00        nop     
0124  00        nop     
0125  ff        rst     #38
0126  ff        rst     #38
0127  ff        rst     #38
0128  ff        rst     #38
0129  ff        rst     #38
012a  ff        rst     #38
012b  ff        rst     #38
012c  ff        rst     #38
012d  ff        rst     #38
012e  ff        rst     #38
012f  ff        rst     #38
0130  c9        ret     
 
0131  ff        rst     #38
0132  ff        rst     #38
0133  ff        rst     #38
0134  ff        rst     #38
0135  ff        rst     #38
0136  ff        rst     #38
0137  ff        rst     #38
0138  ff        rst     #38
0139  00        nop     
013a  ff        rst     #38
013b  ff        rst     #38
013c  ff        rst     #38
013d  ff        rst     #38
013e  ff        rst     #38
013f  ff        rst     #38
0140  ff        rst     #38
0141  ff        rst     #38
0142  00        nop     
0143  ff        rst     #38
0144  ff        rst     #38
0145  ff        rst     #38
0146  ff        rst     #38
0147  ff        rst     #38
0148  ff        rst     #38
0149  ff        rst     #38
014a  ff        rst     #38
014b  00        nop     
014c  ff        rst     #38
014d  ff        rst     #38
014e  ff        rst     #38
014f  ff        rst     #38
0150  ff        rst     #38
0151  ff        rst     #38
0152  ff        rst     #38
0153  ff        rst     #38
0154  ff        rst     #38
0155  ff        rst     #38
0156  ff        rst     #38
0157  ff        rst     #38
0158  ff        rst     #38
0159  ff        rst     #38
015a  ff        rst     #38
015b  ff        rst     #38
015c  ff        rst     #38
015d  ff        rst     #38
015e  00        nop     
015f  ff        rst     #38
0160  ff        rst     #38
0161  ff        rst     #38
0162  ff        rst     #38
0163  ff        rst     #38
0164  ff        rst     #38
0165  ff        rst     #38
0166  ff        rst     #38
0167  ff        rst     #38
0168  ff        rst     #38
0169  ff        rst     #38
016a  ff        rst     #38
016b  ff        rst     #38
016c  ff        rst     #38
016d  ff        rst     #38
016e  ff        rst     #38
016f  ff        rst     #38
0170  ff        rst     #38
0171  ff        rst     #38
0172  ff        rst     #38
0173  ff        rst     #38
0174  ff        rst     #38
0175  ff        rst     #38
0176  ff        rst     #38
0177  ff        rst     #38
0178  ff        rst     #38
0179  ff        rst     #38
017a  ff        rst     #38
017b  ff        rst     #38
017c  ff        rst     #38
017d  ff        rst     #38
017e  ff        rst     #38
017f  ff        rst     #38
0180  ff        rst     #38
0181  ff        rst     #38
0182  ff        rst     #38
0183  ff        rst     #38
0184  ff        rst     #38
0185  ff        rst     #38
0186  ff        rst     #38
0187  ff        rst     #38
0188  ff        rst     #38
0189  ff        rst     #38
018a  ff        rst     #38
018b  ff        rst     #38
018c  ff        rst     #38
018d  ff        rst     #38
018e  ff        rst     #38
018f  ff        rst     #38
0190  ff        rst     #38
0191  ff        rst     #38
0192  ff        rst     #38
0193  ff        rst     #38
0194  ff        rst     #38
0195  ff        rst     #38
0196  ff        rst     #38
0197  ff        rst     #38
0198  ff        rst     #38
0199  ff        rst     #38
019a  ff        rst     #38
019b  ff        rst     #38
019c  ff        rst     #38
019d  ff        rst     #38
019e  ff        rst     #38
019f  ff        rst     #38
01a0  ff        rst     #38
01a1  ff        rst     #38
01a2  ff        rst     #38
01a3  ff        rst     #38
01a4  ff        rst     #38
01a5  ff        rst     #38
01a6  ff        rst     #38
01a7  ff        rst     #38
01a8  ff        rst     #38
01a9  ff        rst     #38
01aa  ff        rst     #38
01ab  ff        rst     #38
01ac  ff        rst     #38
01ad  ff        rst     #38
01ae  ff        rst     #38
01af  ff        rst     #38
01b0  ff        rst     #38
01b1  ff        rst     #38
01b2  ff        rst     #38
01b3  ff        rst     #38
01b4  ff        rst     #38
01b5  ff        rst     #38
01b6  ff        rst     #38
01b7  ff        rst     #38
01b8  ff        rst     #38
01b9  ff        rst     #38
01ba  ff        rst     #38
01bb  ff        rst     #38
01bc  ff        rst     #38
01bd  ff        rst     #38
01be  ff        rst     #38
01bf  ff        rst     #38
01c0  ff        rst     #38
01c1  ff        rst     #38
01c2  ff        rst     #38
01c3  ff        rst     #38
01c4  ff        rst     #38
01c5  ff        rst     #38
01c6  ff        rst     #38
01c7  ff        rst     #38
01c8  ff        rst     #38
01c9  ff        rst     #38
01ca  ff        rst     #38
01cb  ff        rst     #38
01cc  ff        rst     #38
01cd  ff        rst     #38
01ce  ff        rst     #38
01cf  ff        rst     #38
01d0  ff        rst     #38
01d1  ff        rst     #38
01d2  ff        rst     #38
01d3  ff        rst     #38
01d4  ff        rst     #38
01d5  ff        rst     #38
01d6  ff        rst     #38
01d7  ff        rst     #38
01d8  ff        rst     #38
01d9  ff        rst     #38
01da  ff        rst     #38
01db  ff        rst     #38
01dc  ff        rst     #38
01dd  ff        rst     #38
01de  ff        rst     #38
01df  ff        rst     #38
01e0  ff        rst     #38
01e1  ff        rst     #38
01e2  ff        rst     #38
01e3  ff        rst     #38
01e4  ff        rst     #38
01e5  ff        rst     #38
01e6  ff        rst     #38
01e7  ff        rst     #38
01e8  ff        rst     #38
01e9  ff        rst     #38
01ea  ff        rst     #38
01eb  ff        rst     #38
01ec  ff        rst     #38
01ed  ff        rst     #38
01ee  ff        rst     #38
01ef  ff        rst     #38
01f0  ff        rst     #38
01f1  ff        rst     #38
01f2  ff        rst     #38
01f3  ff        rst     #38
01f4  ff        rst     #38
01f5  ff        rst     #38
01f6  ff        rst     #38
01f7  ff        rst     #38
01f8  ff        rst     #38
01f9  ff        rst     #38
01fa  ff        rst     #38
01fb  ff        rst     #38
01fc  ff        rst     #38
01fd  ff        rst     #38
01fe  ff        rst     #38
01ff  ff        rst     #38
0200  c36a07    jp      #076a
0203  c38607    jp      #0786
0206  c39e07    jp      #079e
0209  c3a407    jp      #07a4
020c  c3bc07    jp      #07bc
020f  c3c207    jp      #07c2
0212  c3da07    jp      #07da
0215  c3e307    jp      #07e3
0218  21c617    ld      hl,#17c6
021b  3a9d17    ld      a,(#179d)
021e  be        cp      (hl)
021f  c22402    jp      nz,#0224
0222  3600      ld      (hl),#00
0224  7e        ld      a,(hl)
0225  e5        push    hl
0226  b7        or      a
0227  3a0701    ld      a,(#0107)
022a  47        ld      b,a
022b  c5        push    bc
022c  c26702    jp      nz,#0267
022f  210700    ld      hl,#0007
0232  eb        ex      de,hl
0233  21dc17    ld      hl,#17dc
0236  cd160d    call    #0d16
0239  da6702    jp      c,#0267
023c  e5        push    hl
023d  219c17    ld      hl,#179c
0240  3ad817    ld      a,(#17d8)
0243  be        cp      (hl)
0244  e1        pop     hl
0245  ca6702    jp      z,#0267
0248  3c        inc     a
0249  32d817    ld      (#17d8),a
024c  3a0401    ld      a,(#0104)
024f  0f        rrca    
0250  dac502    jp      c,#02c5
0253  78        ld      a,b
0254  e60f      and     #0f
0256  fe08      cp      #08
0258  dabb02    jp      c,#02bb
025b  3acb10    ld      a,(#10cb)
025e  112211    ld      de,#1122
0261  013e81    ld      bc,#813e
0264  cd0a0f    call    #0f0a
0267  c1        pop     bc
0268  e1        pop     hl
0269  34        inc     (hl)
026a  3e15      ld      a,#15
026c  a0        and     b
026d  fe04      cp      #04
026f  da7902    jp      c,#0279
0272  fe14      cp      #14
0274  3e04      ld      a,#04
0276  dae102    jp      c,#02e1
0279  21c917    ld      hl,#17c9
027c  7e        ld      a,(hl)
027d  34        inc     (hl)
027e  fe04      cp      #04
0280  dae402    jp      c,#02e4
0283  21dc17    ld      hl,#17dc
0286  7e        ld      a,(hl)
0287  feff      cp      #ff
0289  cae002    jp      z,#02e0
028c  e5        push    hl
028d  b7        or      a
028e  cab202    jp      z,#02b2
0291  46        ld      b,(hl)
0292  2b        dec     hl
0293  4e        ld      c,(hl)
0294  23        inc     hl
0295  23        inc     hl
0296  7e        ld      a,(hl)
0297  fe04      cp      #04
0299  d2b202    jp      nc,#02b2
029c  e5        push    hl
029d  cd880e    call    #0e88
02a0  21fa17    ld      hl,#17fa
02a3  110500    ld      de,#0005
02a6  cd160d    call    #0d16
02a9  eb        ex      de,hl
02aa  e1        pop     hl
02ab  dadf02    jp      c,#02df
02ae  7e        ld      a,(hl)
02af  cd220d    call    #0d22
02b2  210700    ld      hl,#0007
02b5  eb        ex      de,hl
02b6  e1        pop     hl
02b7  19        add     hl,de
02b8  c38602    jp      #0286
02bb  af        xor     a
02bc  111811    ld      de,#1118
02bf  012181    ld      bc,#8121
02c2  c36402    jp      #0264
02c5  3e15      ld      a,#15
02c7  a0        and     b
02c8  fe04      cp      #04
02ca  dabb02    jp      c,#02bb
02cd  fe10      cp      #10
02cf  da5b02    jp      c,#025b
02d2  fe14      cp      #14
02d4  3e03      ld      a,#03
02d6  113411    ld      de,#1134
02d9  dabf02    jp      c,#02bf
02dc  c36102    jp      #0261
02df  e1        pop     hl
02e0  af        xor     a
02e1  32c917    ld      (#17c9),a
02e4  3a2f18    ld      a,(#182f)
02e7  fe04      cp      #04
02e9  d2ba05    jp      nc,#05ba
02ec  3ac717    ld      a,(#17c7)
02ef  b7        or      a
02f0  c2fc02    jp      nz,#02fc
02f3  32a517    ld      (#17a5),a
02f6  cd3a09    call    #093a
02f9  c2ba05    jp      nz,#05ba
02fc  21dc17    ld      hl,#17dc
02ff  7e        ld      a,(hl)
0300  feff      cp      #ff
0302  caba05    jp      z,#05ba
0305  e5        push    hl
0306  b7        or      a
0307  ca5603    jp      z,#0356
030a  56        ld      d,(hl)
030b  2b        dec     hl
030c  5e        ld      e,(hl)
030d  23        inc     hl
030e  23        inc     hl
030f  7e        ld      a,(hl)
0310  fe04      cp      #04
0312  d27904    jp      nc,#0479
0315  3ac717    ld      a,(#17c7)
0318  b7        or      a
0319  c25603    jp      nz,#0356
031c  e5        push    hl
031d  7b        ld      a,e
031e  3c        inc     a
031f  cd740d    call    #0d74
0322  d26103    jp      nc,#0361
0325  7e        ld      a,(hl)
0326  b7        or      a
0327  ca3903    jp      z,#0339
032a  3a0701    ld      a,(#0107)
032d  0f        rrca    
032e  0f        rrca    
032f  d20d04    jp      nc,#040d
0332  0f        rrca    
0333  21e410    ld      hl,#10e4
0336  d2e003    jp      nc,#03e0
0339  21dc10    ld      hl,#10dc
033c  22cb17    ld      (#17cb),hl
033f  21e410    ld      hl,#10e4
0342  22cd17    ld      (#17cd),hl
0345  21e010    ld      hl,#10e0
0348  22cf17    ld      (#17cf),hl
034b  21ffff    ld      hl,#ffff
034e  22d117    ld      (#17d1),hl
0351  c33b04    jp      #043b
0354  e1        pop     hl
0355  e1        pop     hl
0356  cd27c0    call    #c027
0359  e1        pop     hl
035a  110700    ld      de,#0007
035d  19        add     hl,de
035e  c3ff02    jp      #02ff
0361  7b        ld      a,e
0362  3d        dec     a
0363  cd6a0d    call    #0d6a
0366  da8403    jp      c,#0384
0369  3e01      ld      a,#01
036b  be        cp      (hl)
036c  ca7b03    jp      z,#037b
036f  3a0701    ld      a,(#0107)
0372  0f        rrca    
0373  0f        rrca    
0374  d20d04    jp      nc,#040d
0377  0f        rrca    
0378  daf803    jp      c,#03f8
037b  21d810    ld      hl,#10d8
037e  22cb17    ld      (#17cb),hl
0381  c33f03    jp      #033f
0384  3a0701    ld      a,(#0107)
0387  e62a      and     #2a
0389  fe20      cp      #20
038b  d20d04    jp      nc,#040d
038e  21007c    ld      hl,#7c00
0391  19        add     hl,de
0392  dacb03    jp      c,#03cb
0395  fe08      cp      #08
0397  d2d003    jp      nc,#03d0
039a  21e410    ld      hl,#10e4
039d  22cb17    ld      (#17cb),hl
03a0  e1        pop     hl
03a1  e5        push    hl
03a2  7e        ld      a,(hl)
03a3  b7        or      a
03a4  21d810    ld      hl,#10d8
03a7  caad03    jp      z,#03ad
03aa  21dc10    ld      hl,#10dc
03ad  22cd17    ld      (#17cd),hl
03b0  21dc10    ld      hl,#10dc
03b3  cab903    jp      z,#03b9
03b6  21d810    ld      hl,#10d8
03b9  22cf17    ld      (#17cf),hl
03bc  21e010    ld      hl,#10e0
03bf  22d117    ld      (#17d1),hl
03c2  2acc10    ld      hl,(#10cc)
03c5  22d317    ld      (#17d3),hl
03c8  c33b04    jp      #043b
03cb  fe08      cp      #08
03cd  d2f803    jp      nc,#03f8
03d0  2a0701    ld      hl,(#0107)
03d3  7c        ld      a,h
03d4  85        add     a,l
03d5  0f        rrca    
03d6  0f        rrca    
03d7  21dc10    ld      hl,#10dc
03da  dae003    jp      c,#03e0
03dd  21d810    ld      hl,#10d8
03e0  22cb17    ld      (#17cb),hl
03e3  21e410    ld      hl,#10e4
03e6  22cd17    ld      (#17cd),hl
03e9  21dc10    ld      hl,#10dc
03ec  d2f203    jp      nc,#03f2
03ef  21d810    ld      hl,#10d8
03f2  22cf17    ld      (#17cf),hl
03f5  c3bc03    jp      #03bc
03f8  21e410    ld      hl,#10e4
03fb  22cb17    ld      (#17cb),hl
03fe  21d810    ld      hl,#10d8
0401  22cd17    ld      (#17cd),hl
0404  21dc10    ld      hl,#10dc
0407  22cf17    ld      (#17cf),hl
040a  c3bc03    jp      #03bc
040d  e1        pop     hl
040e  e5        push    hl
040f  d5        push    de
0410  1604      ld      d,#04
0412  7e        ld      a,(hl)
0413  21f614    ld      hl,#14f6
0416  87        add     a,a
0417  cd3a10    call    #103a
041a  01cb17    ld      bc,#17cb
041d  23        inc     hl
041e  7e        ld      a,(hl)
041f  feff      cp      #ff
0421  ca3504    jp      z,#0435
0424  2b        dec     hl
0425  7e        ld      a,(hl)
0426  02        ld      (bc),a
0427  03        inc     bc
0428  23        inc     hl
0429  7e        ld      a,(hl)
042a  02        ld      (bc),a
042b  03        inc     bc
042c  23        inc     hl
042d  15        dec     d
042e  c21d04    jp      nz,#041d
0431  d1        pop     de
0432  c3c203    jp      #03c2
0435  21f614    ld      hl,#14f6
0438  c31d04    jp      #041d
043b  01cc17    ld      bc,#17cc
043e  0a        ld      a,(bc)
043f  feff      cp      #ff
0441  ca5503    jp      z,#0355
0444  67        ld      h,a
0445  0b        dec     bc
0446  0a        ld      a,(bc)
0447  6f        ld      l,a
0448  03        inc     bc
0449  03        inc     bc
044a  03        inc     bc
044b  e5        push    hl
044c  cd3f10    call    #103f
044f  19        add     hl,de
0450  22d517    ld      (#17d5),hl
0453  e1        pop     hl
0454  23        inc     hl
0455  e5        push    hl
0456  c5        push    bc
0457  cdde0c    call    #0cde
045a  ca7404    jp      z,#0474
045d  d27404    jp      nc,#0474
0460  c1        pop     bc
0461  c1        pop     bc
0462  0a        ld      a,(bc)
0463  e1        pop     hl
0464  be        cp      (hl)
0465  ca7904    jp      z,#0479
0468  77        ld      (hl),a
0469  03        inc     bc
046a  23        inc     hl
046b  0a        ld      a,(bc)
046c  77        ld      (hl),a
046d  03        inc     bc
046e  23        inc     hl
046f  0a        ld      a,(bc)
0470  77        ld      (hl),a
0471  c37b04    jp      #047b
0474  c1        pop     bc
0475  e1        pop     hl
0476  c33e04    jp      #043e
0479  23        inc     hl
047a  23        inc     hl
047b  23        inc     hl
047c  af        xor     a
047d  329e17    ld      (#179e),a
0480  cdb209    call    #09b2
0483  d5        push    de
0484  5e        ld      e,(hl)
0485  23        inc     hl
0486  56        ld      d,(hl)
0487  01fcff    ld      bc,#fffc
048a  09        add     hl,bc
048b  22d517    ld      (#17d5),hl
048e  7e        ld      a,(hl)
048f  fe06      cp      #06
0491  cac304    jp      z,#04c3
0494  e1        pop     hl
0495  cda60d    call    #0da6
0498  eb        ex      de,hl
0499  2ad517    ld      hl,(#17d5)
049c  3a9e17    ld      a,(#179e)
049f  b7        or      a
04a0  ca1805    jp      z,#0518
04a3  fe01      cp      #01
04a5  c2d804    jp      nz,#04d8
04a8  e5        push    hl
04a9  3a5118    ld      a,(#1851)
04ac  fe0b      cp      #0b
04ae  da9a05    jp      c,#059a
04b1  e1        pop     hl
04b2  af        xor     a
04b3  2b        dec     hl
04b4  77        ld      (hl),a
04b5  cdfe0e    call    #0efe
04b8  b7        or      a
04b9  ca0606    jp      z,#0606
04bc  cdcf09    call    #09cf
04bf  e1        pop     hl
04c0  c3ba05    jp      #05ba
04c3  2b        dec     hl
04c4  56        ld      d,(hl)
04c5  3600      ld      (hl),#00
04c7  2b        dec     hl
04c8  5e        ld      e,(hl)
04c9  01000e    ld      bc,#0e00
04cc  cd42c0    call    #c042
04cf  e1        pop     hl
04d0  c35603    jp      #0356
04d3  eb        ex      de,hl
04d4  2ad517    ld      hl,(#17d5)
04d7  eb        ex      de,hl
04d8  d5        push    de
04d9  e5        push    hl
04da  2a9f17    ld      hl,(#179f)
04dd  eb        ex      de,hl
04de  010500    ld      bc,#0005
04e1  213518    ld      hl,#1835
04e4  7e        ld      a,(hl)
04e5  feff      cp      #ff
04e7  ca5403    jp      z,#0354
04ea  ba        cp      d
04eb  c2f504    jp      nz,#04f5
04ee  2b        dec     hl
04ef  7e        ld      a,(hl)
04f0  bb        cp      e
04f1  23        inc     hl
04f2  caf904    jp      z,#04f9
04f5  09        add     hl,bc
04f6  c3e404    jp      #04e4
04f9  3600      ld      (hl),#00
04fb  23        inc     hl
04fc  23        inc     hl
04fd  23        inc     hl
04fe  7e        ld      a,(hl)
04ff  e1        pop     hl
0500  d1        pop     de
0501  cd020b    call    #0b02
0504  3604      ld      (hl),#04
0506  013c11    ld      bc,#113c
0509  23        inc     hl
050a  71        ld      (hl),c
050b  23        inc     hl
050c  70        ld      (hl),b
050d  3e01      ld      a,#01
050f  32c717    ld      (#17c7),a
0512  cd900e    call    #0e90
0515  c37b04    jp      #047b
0518  23        inc     hl
0519  4e        ld      c,(hl)
051a  23        inc     hl
051b  e5        push    hl
051c  46        ld      b,(hl)
051d  03        inc     bc
051e  0a        ld      a,(bc)
051f  b7        or      a
0520  ca6905    jp      z,#0569
0523  0a        ld      a,(bc)
0524  67        ld      h,a
0525  0b        dec     bc
0526  0a        ld      a,(bc)
0527  6f        ld      l,a
0528  eb        ex      de,hl
0529  e5        push    hl
052a  d5        push    de
052b  11e07e    ld      de,#7ee0
052e  19        add     hl,de
052f  d1        pop     de
0530  e1        pop     hl
0531  d29705    jp      nc,#0597
0534  cd090e    call    #0e09
0537  22d517    ld      (#17d5),hl
053a  e1        pop     hl
053b  46        ld      b,(hl)
053c  2b        dec     hl
053d  4e        ld      c,(hl)
053e  03        inc     bc
053f  03        inc     bc
0540  71        ld      (hl),c
0541  23        inc     hl
0542  70        ld      (hl),b
0543  23        inc     hl
0544  73        ld      (hl),e
0545  23        inc     hl
0546  72        ld      (hl),d
0547  01fcff    ld      bc,#fffc
054a  09        add     hl,bc
054b  7e        ld      a,(hl)
054c  fe04      cp      #04
054e  d25603    jp      nc,#0356
0551  3a9e17    ld      a,(#179e)
0554  b7        or      a
0555  ca5603    jp      z,#0356
0558  fe01      cp      #01
055a  c2d304    jp      nz,#04d3
055d  e5        push    hl
055e  2ad517    ld      hl,(#17d5)
0561  cda60d    call    #0da6
0564  eb        ex      de,hl
0565  e1        pop     hl
0566  c3a804    jp      #04a8
0569  2b        dec     hl
056a  2b        dec     hl
056b  7e        ld      a,(hl)
056c  fe04      cp      #04
056e  caa805    jp      z,#05a8
0571  e5        push    hl
0572  212078    ld      hl,#7820
0575  19        add     hl,de
0576  e1        pop     hl
0577  da9a05    jp      c,#059a
057a  03        inc     bc
057b  0a        ld      a,(bc)
057c  83        add     a,e
057d  5f        ld      e,a
057e  03        inc     bc
057f  0a        ld      a,(bc)
0580  8a        adc     a,d
0581  57        ld      d,a
0582  2b        dec     hl
0583  72        ld      (hl),d
0584  2b        dec     hl
0585  73        ld      (hl),e
0586  23        inc     hl
0587  23        inc     hl
0588  23        inc     hl
0589  03        inc     bc
058a  0a        ld      a,(bc)
058b  77        ld      (hl),a
058c  03        inc     bc
058d  0a        ld      a,(bc)
058e  23        inc     hl
058f  77        ld      (hl),a
0590  46        ld      b,(hl)
0591  2b        dec     hl
0592  4e        ld      c,(hl)
0593  03        inc     bc
0594  c32305    jp      #0523
0597  2ad517    ld      hl,(#17d5)
059a  2b        dec     hl
059b  3600      ld      (hl),#00
059d  21d817    ld      hl,#17d8
05a0  35        dec     (hl)
05a1  af        xor     a
05a2  32c617    ld      (#17c6),a
05a5  c35503    jp      #0355
05a8  cd250b    call    #0b25
05ab  e1        pop     hl
05ac  21c717    ld      hl,#17c7
05af  35        dec     (hl)
05b0  cdfe0e    call    #0efe
05b3  b7        or      a
05b4  ca0606    jp      z,#0606
05b7  c35603    jp      #0356
05ba  3ac717    ld      a,(#17c7)
05bd  b7        or      a
05be  c2d605    jp      nz,#05d6
05c1  3a2f18    ld      a,(#182f)
05c4  fe04      cp      #04
05c6  d20d06    jp      nc,#060d
05c9  cd3906    call    #0639
05cc  cd2209    call    #0922
05cf  c2d605    jp      nz,#05d6
05d2  b7        or      a
05d3  c20d06    jp      nz,#060d
05d6  214810    ld      hl,#1048
05d9  0e0f      ld      c,#0f
05db  cdf60a    call    #0af6
05de  0609      ld      b,#09
05e0  2aac17    ld      hl,(#17ac)
05e3  3e06      ld      a,#06
05e5  cd410b    call    #0b41
05e8  78        ld      a,b
05e9  b7        or      a
05ea  c2710f    jp      nz,#0f71
05ed  cddd09    call    #09dd
05f0  cd9808    call    #0898
05f3  3a0401    ld      a,(#0104)
05f6  0f        rrca    
05f7  012300    ld      bc,#0023
05fa  d20006    jp      nc,#0600
05fd  013c00    ld      bc,#003c
0600  cd48c0    call    #c048
0603  c31802    jp      #0218
0606  e1        pop     hl
0607  cd9d0e    call    #0e9d
060a  c3740f    jp      #0f74
060d  cda309    call    #09a3
0610  cd5209    call    #0952
0613  dad605    jp      c,#05d6
0616  cde308    call    #08e3
0619  af        xor     a
061a  325118    ld      (#1851),a
061d  cd2606    call    #0626
0620  ca710f    jp      z,#0f71
0623  c3d605    jp      #05d6
0626  21d717    ld      hl,#17d7
0629  3abf10    ld      a,(#10bf)
062c  111080    ld      de,#8010
062f  34        inc     (hl)
0630  96        sub     (hl)
0631  f5        push    af
0632  0e00      ld      c,#00
0634  cd3fc0    call    #c03f
0637  f1        pop     af
0638  c9        ret     
 
0639  cd27c0    call    #c027
063c  caca06    jp      z,#06ca
063f  2ae810    ld      hl,(#10e8)
0642  56        ld      d,(hl)
0643  2b        dec     hl
0644  5e        ld      e,(hl)
0645  f5        push    af
0646  2aea10    ld      hl,(#10ea)
0649  cdc10b    call    #0bc1
064c  da8806    jp      c,#0688
064f  cd8206    call    #0682
0652  f1        pop     af
0653  f5        push    af
0654  2aec10    ld      hl,(#10ec)
0657  cdc10b    call    #0bc1
065a  dad206    jp      c,#06d2
065d  f1        pop     af
065e  f5        push    af
065f  2aee10    ld      hl,(#10ee)
0662  cdc10b    call    #0bc1
0665  da0607    jp      c,#0706
0668  f1        pop     af
0669  f5        push    af
066a  2af010    ld      hl,(#10f0)
066d  cdc10b    call    #0bc1
0670  da2907    jp      c,#0729
0673  f1        pop     af
0674  f5        push    af
0675  2af210    ld      hl,(#10f2)
0678  cdc10b    call    #0bc1
067b  da4907    jp      c,#0749
067e  f1        pop     af
067f  c3cd06    jp      #06cd
0682  2af410    ld      hl,(#10f4)
0685  3603      ld      (hl),#03
0687  c9        ret     
 
0688  2af410    ld      hl,(#10f4)
068b  7e        ld      a,(hl)
068c  34        inc     (hl)
068d  fe03      cp      #03
068f  dac406    jp      c,#06c4
0692  2ae810    ld      hl,(#10e8)
0695  23        inc     hl
0696  7e        ld      a,(hl)
0697  32a617    ld      (#17a6),a
069a  eb        ex      de,hl
069b  cd900b    call    #0b90
069e  cac306    jp      z,#06c3
06a1  e5        push    hl
06a2  cd880e    call    #0e88
06a5  2ace10    ld      hl,(#10ce)
06a8  eb        ex      de,hl
06a9  2af610    ld      hl,(#10f6)
06ac  cd160d    call    #0d16
06af  eb        ex      de,hl
06b0  e1        pop     hl
06b1  dac306    jp      c,#06c3
06b4  44        ld      b,h
06b5  4d        ld      c,l
06b6  3aa617    ld      a,(#17a6)
06b9  cd220d    call    #0d22
06bc  2af410    ld      hl,(#10f4)
06bf  3600      ld      (hl),#00
06c1  60        ld      h,b
06c2  69        ld      l,c
06c3  eb        ex      de,hl
06c4  f1        pop     af
06c5  fe02      cp      #02
06c7  d25306    jp      nc,#0653
06ca  d48206    call    nc,#0682
06cd  af        xor     a
06ce  32a517    ld      (#17a5),a
06d1  c9        ret     
 
06d2  f1        pop     af
06d3  21c07e    ld      hl,#7ec0
06d6  19        add     hl,de
06d7  eb        ex      de,hl
06d8  d2cd06    jp      nc,#06cd
06db  119fff    ld      de,#ff9f
06de  eb        ex      de,hl
06df  19        add     hl,de
06e0  0e03      ld      c,#03
06e2  7e        ld      a,(hl)
06e3  feff      cp      #ff
06e5  cacd06    jp      z,#06cd
06e8  23        inc     hl
06e9  0d        dec     c
06ea  c2e206    jp      nz,#06e2
06ed  2af810    ld      hl,(#10f8)
06f0  3e02      ld      a,#02
06f2  eb        ex      de,hl
06f3  2ae810    ld      hl,(#10e8)
06f6  23        inc     hl
06f7  be        cp      (hl)
06f8  ca0007    jp      z,#0700
06fb  77        ld      (hl),a
06fc  23        inc     hl
06fd  73        ld      (hl),e
06fe  23        inc     hl
06ff  72        ld      (hl),d
0700  3e01      ld      a,#01
0702  32a517    ld      (#17a5),a
0705  c9        ret     
 
0706  f1        pop     af
0707  216078    ld      hl,#7860
070a  19        add     hl,de
070b  eb        ex      de,hl
070c  dacd06    jp      c,#06cd
070f  115f00    ld      de,#005f
0712  eb        ex      de,hl
0713  19        add     hl,de
0714  0e03      ld      c,#03
0716  7e        ld      a,(hl)
0717  feff      cp      #ff
0719  cacd06    jp      z,#06cd
071c  23        inc     hl
071d  0d        dec     c
071e  c21607    jp      nz,#0716
0721  3e03      ld      a,#03
0723  2afa10    ld      hl,(#10fa)
0726  c3f206    jp      #06f2
0729  f1        pop     af
072a  eb        ex      de,hl
072b  7d        ld      a,l
072c  3c        inc     a
072d  cd740d    call    #0d74
0730  dacd06    jp      c,#06cd
0733  11c2ff    ld      de,#ffc2
0736  eb        ex      de,hl
0737  19        add     hl,de
0738  22d517    ld      (#17d5),hl
073b  af        xor     a
073c  cddf0c    call    #0cdf
073f  cacd06    jp      z,#06cd
0742  af        xor     a
0743  2afc10    ld      hl,(#10fc)
0746  c3f206    jp      #06f2
0749  f1        pop     af
074a  eb        ex      de,hl
074b  7d        ld      a,l
074c  3d        dec     a
074d  cd6a0d    call    #0d6a
0750  d2cd06    jp      nc,#06cd
0753  11beff    ld      de,#ffbe
0756  eb        ex      de,hl
0757  19        add     hl,de
0758  22d517    ld      (#17d5),hl
075b  af        xor     a
075c  cddf0c    call    #0cdf
075f  cacd06    jp      z,#06cd
0762  3e01      ld      a,#01
0764  2afe10    ld      hl,(#10fe)
0767  c3f206    jp      #06f2
076a  310002    ld      sp,#0200
076d  3ec3      ld      a,#c3
076f  323800    ld      (#0038),a
0772  2124c0    ld      hl,#c024
0775  223900    ld      (#0039),hl
0778  fb        ei      
0779  af        xor     a
077a  321b01    ld      (#011b),a
077d  320601    ld      (#0106),a
0780  cd8c07    call    #078c
0783  c36a07    jp      #076a
0786  cd8c07    call    #078c
0789  c38607    jp      #0786
078c  2ab910    ld      hl,(#10b9)
078f  229c17    ld      (#179c),hl
0792  cd39c0    call    #c039
0795  213913    ld      hl,#1339
0798  cdd60b    call    #0bd6
079b  c31802    jp      #0218
079e  cdaa07    call    #07aa
07a1  c39e07    jp      #079e
07a4  cdaa07    call    #07aa
07a7  c3a407    jp      #07a4
07aa  2abb10    ld      hl,(#10bb)
07ad  229c17    ld      (#179c),hl
07b0  cd39c0    call    #c039
07b3  218613    ld      hl,#1386
07b6  cdd60b    call    #0bd6
07b9  c31802    jp      #0218
07bc  cdc807    call    #07c8
07bf  c3bc07    jp      #07bc
07c2  cdc807    call    #07c8
07c5  c3c207    jp      #07c2
07c8  2abd10    ld      hl,(#10bd)
07cb  229c17    ld      (#179c),hl
07ce  cd39c0    call    #c039
07d1  217913    ld      hl,#1379
07d4  cdd60b    call    #0bd6
07d7  c31802    jp      #0218
07da  cdf207    call    #07f2
07dd  cd1208    call    #0812
07e0  c3da07    jp      #07da
07e3  cdf207    call    #07f2
07e6  21a010    ld      hl,#10a0
07e9  cd850a    call    #0a85
07ec  cd1208    call    #0812
07ef  c3e307    jp      #07e3
07f2  cd39c0    call    #c039
07f5  0619      ld      b,#19
07f7  cdd10f    call    #0fd1
07fa  21df13    ld      hl,#13df
07fd  cdce0e    call    #0ece
0800  215e10    ld      hl,#105e
0803  cd640a    call    #0a64
0806  217110    ld      hl,#1071
0809  cd640a    call    #0a64
080c  cd0b09    call    #090b
080f  c3ed0a    jp      #0aed
0812  3a2f18    ld      a,(#182f)
0815  fe04      cp      #04
0817  d2c408    jp      nc,#08c4
081a  3add17    ld      a,(#17dd)
081d  fe04      cp      #04
081f  d24f08    jp      nc,#084f
0822  cd3906    call    #0639
0825  cd2209    call    #0922
0828  c2b508    jp      nz,#08b5
082b  b7        or      a
082c  c2c408    jp      nz,#08c4
082f  3a2f18    ld      a,(#182f)
0832  fe04      cp      #04
0834  d28d08    jp      nc,#088d
0837  cd27c0    call    #c027
083a  f5        push    af
083b  cd040a    call    #0a04
083e  f1        pop     af
083f  cd3c06    call    #063c
0842  cd040a    call    #0a04
0845  cd3a09    call    #093a
0848  c26108    jp      nz,#0861
084b  b7        or      a
084c  ca6108    jp      z,#0861
084f  cd0f0a    call    #0a0f
0852  cdb209    call    #09b2
0855  cd5209    call    #0952
0858  d2a108    jp      nc,#08a1
085b  cd990a    call    #0a99
085e  cd0f0a    call    #0a0f
0861  215710    ld      hl,#1057
0864  cd250a    call    #0a25
0867  3ad917    ld      a,(#17d9)
086a  2f        cpl     
086b  c602      add     a,#02
086d  32d917    ld      (#17d9),a
0870  216a10    ld      hl,#106a
0873  cd250a    call    #0a25
0876  3a0401    ld      a,(#0104)
0879  fe07      cp      #07
087b  ca8108    jp      z,#0881
087e  cd740a    call    #0a74
0881  cd9808    call    #0898
0884  014100    ld      bc,#0041
0887  cd48c0    call    #c048
088a  c31208    jp      #0812
088d  3add17    ld      a,(#17dd)
0890  fe04      cp      #04
0892  da6108    jp      c,#0861
0895  c34f08    jp      #084f
0898  215118    ld      hl,#1851
089b  7e        ld      a,(hl)
089c  fe0b      cp      #0b
089e  d0        ret     nc
 
089f  34        inc     (hl)
08a0  c9        ret     
 
08a1  eb        ex      de,hl
08a2  cdf208    call    #08f2
08a5  da5e08    jp      c,#085e
08a8  cd0f0a    call    #0a0f
08ab  cdfe0e    call    #0efe
08ae  b7        or      a
08af  cae008    jp      z,#08e0
08b2  c36108    jp      #0861
08b5  3600      ld      (hl),#00
08b7  23        inc     hl
08b8  23        inc     hl
08b9  23        inc     hl
08ba  7e        ld      a,(hl)
08bb  cd020b    call    #0b02
08be  cdc109    call    #09c1
08c1  c34f08    jp      #084f
08c4  cda309    call    #09a3
08c7  cd5209    call    #0952
08ca  d2d308    jp      nc,#08d3
08cd  cd990a    call    #0a99
08d0  c32f08    jp      #082f
08d3  eb        ex      de,hl
08d4  cdf208    call    #08f2
08d7  da2f08    jp      c,#082f
08da  cd2606    call    #0626
08dd  c22f08    jp      nz,#082f
08e0  c3710f    jp      #0f71
08e3  01a987    ld      bc,#87a9
08e6  3e02      ld      a,#02
08e8  116011    ld      de,#1160
08eb  212e18    ld      hl,#182e
08ee  cd0a0f    call    #0f0a
08f1  c9        ret     
 
08f2  212f18    ld      hl,#182f
08f5  7e        ld      a,(hl)
08f6  fe06      cp      #06
08f8  d20009    jp      nc,#0900
08fb  cd250b    call    #0b25
08fe  37        scf     
08ff  c9        ret     
 
0900  fe07      cp      #07
0902  ca0b09    jp      z,#090b
0905  01000e    ld      bc,#0e00
0908  cd42c0    call    #c042
090b  2aba17    ld      hl,(#17ba)
090e  44        ld      b,h
090f  4d        ld      c,l
0910  2abc17    ld      hl,(#17bc)
0913  eb        ex      de,hl
0914  212e18    ld      hl,#182e
0917  3abe17    ld      a,(#17be)
091a  cd0a0f    call    #0f0a
091d  af        xor     a
091e  325118    ld      (#1851),a
0921  c9        ret     
 
0922  0e03      ld      c,#03
0924  c5        push    bc
0925  cda309    call    #09a3
0928  213518    ld      hl,#1835
092b  cde70b    call    #0be7
092e  c1        pop     bc
092f  feff      cp      #ff
0931  c0        ret     nz
 
0932  0d        dec     c
0933  c22409    jp      nz,#0924
0936  3aa517    ld      a,(#17a5)
0939  c9        ret     
 
093a  0e03      ld      c,#03
093c  c5        push    bc
093d  cdb209    call    #09b2
0940  21fa17    ld      hl,#17fa
0943  cde70b    call    #0be7
0946  c1        pop     bc
0947  feff      cp      #ff
0949  c0        ret     nz
 
094a  0d        dec     c
094b  c23c09    jp      nz,#093c
094e  3aa517    ld      a,(#17a5)
0951  c9        ret     
 
0952  af        xor     a
0953  329e17    ld      (#179e),a
0956  2a3218    ld      hl,(#1832)
0959  eb        ex      de,hl
095a  2a2d18    ld      hl,(#182d)
095d  cda60d    call    #0da6
0960  3a2f18    ld      a,(#182f)
0963  fe07      cp      #07
0965  d0        ret     nc
 
0966  e5        push    hl
0967  2a3018    ld      hl,(#1830)
096a  23        inc     hl
096b  7e        ld      a,(hl)
096c  b7        or      a
096d  ca8209    jp      z,#0982
0970  56        ld      d,(hl)
0971  2b        dec     hl
0972  5e        ld      e,(hl)
0973  23        inc     hl
0974  23        inc     hl
0975  223018    ld      (#1830),hl
0978  e1        pop     hl
0979  cd090e    call    #0e09
097c  eb        ex      de,hl
097d  223218    ld      (#1832),hl
0980  37        scf     
0981  c9        ret     
 
0982  3a2f18    ld      a,(#182f)
0985  fe04      cp      #04
0987  d2a109    jp      nc,#09a1
098a  23        inc     hl
098b  5e        ld      e,(hl)
098c  23        inc     hl
098d  56        ld      d,(hl)
098e  23        inc     hl
098f  4e        ld      c,(hl)
0990  23        inc     hl
0991  46        ld      b,(hl)
0992  e1        pop     hl
0993  19        add     hl,de
0994  222d18    ld      (#182d),hl
0997  e5        push    hl
0998  213018    ld      hl,#1830
099b  71        ld      (hl),c
099c  23        inc     hl
099d  70        ld      (hl),b
099e  c36709    jp      #0967
09a1  e1        pop     hl
09a2  c9        ret     
 
09a3  e5        push    hl
09a4  213814    ld      hl,#1438
09a7  224f18    ld      (#184f),hl
09aa  219110    ld      hl,#1091
09ad  22a717    ld      (#17a7),hl
09b0  e1        pop     hl
09b1  c9        ret     
 
09b2  e5        push    hl
09b3  211438    ld      hl,#3814
09b6  224f18    ld      (#184f),hl
09b9  219610    ld      hl,#1096
09bc  22a717    ld      (#17a7),hl
09bf  e1        pop     hl
09c0  c9        ret     
 
09c1  3e04      ld      a,#04
09c3  32dd17    ld      (#17dd),a
09c6  213c11    ld      hl,#113c
09c9  22de17    ld      (#17de),hl
09cc  c3900e    jp      #0e90
09cf  3e04      ld      a,#04
09d1  322f18    ld      (#182f),a
09d4  213c11    ld      hl,#113c
09d7  223018    ld      (#1830),hl
09da  c3900e    jp      #0e90
09dd  af        xor     a
09de  32a217    ld      (#17a2),a
09e1  2aae17    ld      hl,(#17ae)
09e4  eb        ex      de,hl
09e5  2ab017    ld      hl,(#17b0)
09e8  44        ld      b,h
09e9  4d        ld      c,l
09ea  cde50e    call    #0ee5
09ed  3ad917    ld      a,(#17d9)
09f0  b7        or      a
09f1  3e01      ld      a,#01
09f3  2ab217    ld      hl,(#17b2)
09f6  cafd09    jp      z,#09fd
09f9  af        xor     a
09fa  2ab417    ld      hl,(#17b4)
09fd  32d917    ld      (#17d9),a
0a00  eb        ex      de,hl
0a01  c3f10d    jp      #0df1
0a04  21e810    ld      hl,#10e8
0a07  110011    ld      de,#1100
0a0a  0e18      ld      c,#18
0a0c  c39a0c    jp      #0c9a
0a0f  212d18    ld      hl,#182d
0a12  11db17    ld      de,#17db
0a15  0e07      ld      c,#07
0a17  cd9a0c    call    #0c9a
0a1a  21ba17    ld      hl,#17ba
0a1d  11bf17    ld      de,#17bf
0a20  0e05      ld      c,#05
0a22  c39a0c    jp      #0c9a
0a25  0e13      ld      c,#13
0a27  cdf60a    call    #0af6
0a2a  3abf10    ld      a,(#10bf)
0a2d  2ab617    ld      hl,(#17b6)
0a30  96        sub     (hl)
0a31  fe02      cp      #02
0a33  d2450a    jp      nc,#0a45
0a36  2aac17    ld      hl,(#17ac)
0a39  0609      ld      b,#09
0a3b  3e04      ld      a,#04
0a3d  cd410b    call    #0b41
0a40  78        ld      a,b
0a41  b7        or      a
0a42  c2480a    jp      nz,#0a48
0a45  c3dd09    jp      #09dd
0a48  e1        pop     hl
0a49  2aae17    ld      hl,(#17ae)
0a4c  eb        ex      de,hl
0a4d  0e00      ld      c,#00
0a4f  3e19      ld      a,#19
0a51  f5        push    af
0a52  cd3fc0    call    #c03f
0a55  f1        pop     af
0a56  2ab817    ld      hl,(#17b8)
0a59  86        add     a,(hl)
0a5a  77        ld      (hl),a
0a5b  017800    ld      bc,#0078
0a5e  cd48c0    call    #c048
0a61  c3e008    jp      #08e0
0a64  115814    ld      de,#1458
0a67  d5        push    de
0a68  11ae17    ld      de,#17ae
0a6b  0e04      ld      c,#04
0a6d  cdf90a    call    #0af9
0a70  d1        pop     de
0a71  c3f10d    jp      #0df1
0a74  2ac417    ld      hl,(#17c4)
0a77  5e        ld      e,(hl)
0a78  23        inc     hl
0a79  56        ld      d,(hl)
0a7a  23        inc     hl
0a7b  4e        ld      c,(hl)
0a7c  23        inc     hl
0a7d  46        ld      b,(hl)
0a7e  23        inc     hl
0a7f  23        inc     hl
0a80  e5        push    hl
0a81  cdaa0a    call    #0aaa
0a84  e1        pop     hl
0a85  7e        ld      a,(hl)
0a86  feff      cp      #ff
0a88  c28e0a    jp      nz,#0a8e
0a8b  21a010    ld      hl,#10a0
0a8e  56        ld      d,(hl)
0a8f  2b        dec     hl
0a90  5e        ld      e,(hl)
0a91  23        inc     hl
0a92  23        inc     hl
0a93  22c417    ld      (#17c4),hl
0a96  c3670a    jp      #0a67
0a99  3a9e17    ld      a,(#179e)
0a9c  fe01      cp      #01
0a9e  c0        ret     nz
 
0a9f  3e0e      ld      a,#0e
0aa1  32a117    ld      (#17a1),a
0aa4  cdc109    call    #09c1
0aa7  c3cf09    jp      #09cf
0aaa  eb        ex      de,hl
0aab  79        ld      a,c
0aac  e5        push    hl
0aad  f5        push    af
0aae  4f        ld      c,a
0aaf  7e        ld      a,(hl)
0ab0  eb        ex      de,hl
0ab1  219610    ld      hl,#1096
0ab4  22a717    ld      (#17a7),hl
0ab7  cd510e    call    #0e51
0aba  dadc0a    jp      c,#0adc
0abd  219110    ld      hl,#1091
0ac0  22a717    ld      (#17a7),hl
0ac3  cd510e    call    #0e51
0ac6  dae70a    jp      c,#0ae7
0ac9  eb        ex      de,hl
0aca  3600      ld      (hl),#00
0acc  23        inc     hl
0acd  0d        dec     c
0ace  c2af0a    jp      nz,#0aaf
0ad1  f1        pop     af
0ad2  e1        pop     hl
0ad3  112000    ld      de,#0020
0ad6  19        add     hl,de
0ad7  05        dec     b
0ad8  c2ac0a    jp      nz,#0aac
0adb  c9        ret     
 
0adc  212f18    ld      hl,#182f
0adf  3607      ld      (hl),#07
0ae1  cdc10e    call    #0ec1
0ae4  c3c90a    jp      #0ac9
0ae7  21dd17    ld      hl,#17dd
0aea  c3df0a    jp      #0adf
0aed  cd0f0a    call    #0a0f
0af0  cd0b09    call    #090b
0af3  c30f0a    jp      #0a0f
0af6  11a717    ld      de,#17a7
0af9  7e        ld      a,(hl)
0afa  12        ld      (de),a
0afb  23        inc     hl
0afc  13        inc     de
0afd  0d        dec     c
0afe  c2f90a    jp      nz,#0af9
0b01  c9        ret     
 
0b02  fe03      cp      #03
0b04  0609      ld      b,#09
0b06  da190b    jp      c,#0b19
0b09  0608      ld      b,#08
0b0b  fe06      cp      #06
0b0d  da190b    jp      c,#0b19
0b10  0605      ld      b,#05
0b12  fe0b      cp      #0b
0b14  da190b    jp      c,#0b19
0b17  0603      ld      b,#03
0b19  3a2301    ld      a,(#0123)
0b1c  80        add     a,b
0b1d  322301    ld      (#0123),a
0b20  78        ld      a,b
0b21  32a117    ld      (#17a1),a
0b24  c9        ret     
 
0b25  3606      ld      (hl),#06
0b27  e5        push    hl
0b28  21c0ff    ld      hl,#ffc0
0b2b  19        add     hl,de
0b2c  eb        ex      de,hl
0b2d  e1        pop     hl
0b2e  2b        dec     hl
0b2f  72        ld      (hl),d
0b30  2b        dec     hl
0b31  73        ld      (hl),e
0b32  3aa117    ld      a,(#17a1)
0b35  47        ld      b,a
0b36  0e00      ld      c,#00
0b38  cd42c0    call    #c042
0b3b  01c800    ld      bc,#00c8
0b3e  c348c0    jp      #c048
0b41  112000    ld      de,#0020
0b44  e5        push    hl
0b45  f5        push    af
0b46  4f        ld      c,a
0b47  3aa917    ld      a,(#17a9)
0b4a  be        cp      (hl)
0b4b  ca620b    jp      z,#0b62
0b4e  7e        ld      a,(hl)
0b4f  cd510e    call    #0e51
0b52  da620b    jp      c,#0b62
0b55  23        inc     hl
0b56  0d        dec     c
0b57  c2470b    jp      nz,#0b47
0b5a  f1        pop     af
0b5b  e1        pop     hl
0b5c  19        add     hl,de
0b5d  05        dec     b
0b5e  c2440b    jp      nz,#0b44
0b61  c9        ret     
 
0b62  f1        pop     af
0b63  e1        pop     hl
0b64  cd900e    call    #0e90
0b67  017011    ld      bc,#1170
0b6a  2aaa17    ld      hl,(#17aa)
0b6d  0a        ld      a,(bc)
0b6e  5f        ld      e,a
0b6f  03        inc     bc
0b70  0a        ld      a,(bc)
0b71  b7        or      a
0b72  c8        ret     z
 
0b73  57        ld      d,a
0b74  cd230f    call    #0f23
0b77  c5        push    bc
0b78  019600    ld      bc,#0096
0b7b  cd48c0    call    #c048
0b7e  01060c    ld      bc,#0c06
0b81  af        xor     a
0b82  32a217    ld      (#17a2),a
0b85  e5        push    hl
0b86  eb        ex      de,hl
0b87  cde50e    call    #0ee5
0b8a  e1        pop     hl
0b8b  c1        pop     bc
0b8c  03        inc     bc
0b8d  c36d0b    jp      #0b6d
0b90  7d        ld      a,l
0b91  3c        inc     a
0b92  cd740d    call    #0d74
0b95  3aa617    ld      a,(#17a6)
0b98  47        ld      b,a
0b99  d29e0b    jp      nc,#0b9e
0b9c  b7        or      a
0b9d  c9        ret     
 
0b9e  7d        ld      a,l
0b9f  3d        dec     a
0ba0  cd6a0d    call    #0d6a
0ba3  daaa0b    jp      c,#0baa
0ba6  78        ld      a,b
0ba7  fe01      cp      #01
0ba9  c9        ret     
 
0baa  eb        ex      de,hl
0bab  21e07e    ld      hl,#7ee0
0bae  19        add     hl,de
0baf  dab70b    jp      c,#0bb7
0bb2  eb        ex      de,hl
0bb3  78        ld      a,b
0bb4  fe02      cp      #02
0bb6  c9        ret     
 
0bb7  216078    ld      hl,#7860
0bba  19        add     hl,de
0bbb  eb        ex      de,hl
0bbc  d0        ret     nc
 
0bbd  78        ld      a,b
0bbe  fe03      cp      #03
0bc0  c9        ret     
 
0bc1  4f        ld      c,a
0bc2  d5        push    de
0bc3  111b01    ld      de,#011b
0bc6  1a        ld      a,(de)
0bc7  e5        push    hl
0bc8  cd5a0e    call    #0e5a
0bcb  e1        pop     hl
0bcc  dad40b    jp      c,#0bd4
0bcf  13        inc     de
0bd0  0d        dec     c
0bd1  c2c60b    jp      nz,#0bc6
0bd4  d1        pop     de
0bd5  c9        ret     
 
0bd6  cdce0e    call    #0ece
0bd9  111814    ld      de,#1418
0bdc  cd020e    call    #0e02
0bdf  cde308    call    #08e3
0be2  0632      ld      b,#32
0be4  c3d10f    jp      #0fd1
0be7  7e        ld      a,(hl)
0be8  feff      cp      #ff
0bea  c8        ret     z
 
0beb  e5        push    hl
0bec  b7        or      a
0bed  ca3a0c    jp      z,#0c3a
0bf0  56        ld      d,(hl)
0bf1  2b        dec     hl
0bf2  5e        ld      e,(hl)
0bf3  23        inc     hl
0bf4  23        inc     hl
0bf5  7e        ld      a,(hl)
0bf6  b7        or      a
0bf7  3600      ld      (hl),#00
0bf9  23        inc     hl
0bfa  c20c0c    jp      nz,#0c0c
0bfd  1a        ld      a,(de)
0bfe  fe00      cp      #00
0c00  ca360c    jp      z,#0c36
0c03  cd510e    call    #0e51
0c06  da590c    jp      c,#0c59
0c09  cd800c    call    #0c80
0c0c  cd3e0d    call    #0d3e
0c0f  78        ld      a,b
0c10  b7        or      a
0c11  ca360c    jp      z,#0c36
0c14  23        inc     hl
0c15  34        inc     (hl)
0c16  7e        ld      a,(hl)
0c17  2b        dec     hl
0c18  fe0d      cp      #0d
0c1a  d2360c    jp      nc,#0c36
0c1d  cd800c    call    #0c80
0c20  ca360c    jp      z,#0c36
0c23  cda60c    call    #0ca6
0c26  c2420c    jp      nz,#0c42
0c29  3a0401    ld      a,(#0104)
0c2c  fe07      cp      #07
0c2e  d2360c    jp      nc,#0c36
0c31  e5        push    hl
0c32  cd7e0d    call    #0d7e
0c35  e1        pop     hl
0c36  2b        dec     hl
0c37  2b        dec     hl
0c38  3600      ld      (hl),#00
0c3a  e1        pop     hl
0c3b  110500    ld      de,#0005
0c3e  19        add     hl,de
0c3f  c3e70b    jp      #0be7
0c42  1a        ld      a,(de)
0c43  cd510e    call    #0e51
0c46  d2520c    jp      nc,#0c52
0c49  3a5118    ld      a,(#1851)
0c4c  fe0b      cp      #0b
0c4e  da3a0c    jp      c,#0c3a
0c51  37        scf     
0c52  3a5018    ld      a,(#1850)
0c55  12        ld      (de),a
0c56  d23a0c    jp      nc,#0c3a
0c59  3a5118    ld      a,(#1851)
0c5c  fe0b      cp      #0b
0c5e  da360c    jp      c,#0c36
0c61  3a5018    ld      a,(#1850)
0c64  fe14      cp      #14
0c66  ca7e0c    jp      z,#0c7e
0c69  af        xor     a
0c6a  12        ld      (de),a
0c6b  23        inc     hl
0c6c  7e        ld      a,(hl)
0c6d  2b        dec     hl
0c6e  2b        dec     hl
0c6f  2b        dec     hl
0c70  3600      ld      (hl),#00
0c72  cd900c    call    #0c90
0c75  cd020b    call    #0b02
0c78  cd900c    call    #0c90
0c7b  cdcf09    call    #09cf
0c7e  e1        pop     hl
0c7f  c9        ret     
 
0c80  1a        ld      a,(de)
0c81  e5        push    hl
0c82  2a4f18    ld      hl,(#184f)
0c85  bc        cp      h
0c86  ca8a0c    jp      z,#0c8a
0c89  bd        cp      l
0c8a  e1        pop     hl
0c8b  c0        ret     nz
 
0c8c  3e00      ld      a,#00
0c8e  12        ld      (de),a
0c8f  c9        ret     
 
0c90  2a2301    ld      hl,(#0123)
0c93  44        ld      b,h
0c94  65        ld      h,l
0c95  68        ld      l,b
0c96  222301    ld      (#0123),hl
0c99  c9        ret     
 
0c9a  46        ld      b,(hl)
0c9b  1a        ld      a,(de)
0c9c  77        ld      (hl),a
0c9d  23        inc     hl
0c9e  78        ld      a,b
0c9f  12        ld      (de),a
0ca0  13        inc     de
0ca1  0d        dec     c
0ca2  c29a0c    jp      nz,#0c9a
0ca5  c9        ret     
 
0ca6  7e        ld      a,(hl)
0ca7  fe02      cp      #02
0ca9  dabf0c    jp      c,#0cbf
0cac  e5        push    hl
0cad  212000    ld      hl,#0020
0cb0  cab60c    jp      z,#0cb6
0cb3  21e0ff    ld      hl,#ffe0
0cb6  19        add     hl,de
0cb7  7e        ld      a,(hl)
0cb8  feff      cp      #ff
0cba  c2be0c    jp      nz,#0cbe
0cbd  eb        ex      de,hl
0cbe  e1        pop     hl
0cbf  1a        ld      a,(de)
0cc0  feff      cp      #ff
0cc2  c9        ret     
 
0cc3  7e        ld      a,(hl)
0cc4  fe02      cp      #02
0cc6  d8        ret     c
 
0cc7  e5        push    hl
0cc8  21e0ff    ld      hl,#ffe0
0ccb  cad60c    jp      z,#0cd6
0cce  fe04      cp      #04
0cd0  e1        pop     hl
0cd1  d0        ret     nc
 
0cd2  e5        push    hl
0cd3  212000    ld      hl,#0020
0cd6  19        add     hl,de
0cd7  eb        ex      de,hl
0cd8  e1        pop     hl
0cd9  2b        dec     hl
0cda  72        ld      (hl),d
0cdb  2b        dec     hl
0cdc  73        ld      (hl),e
0cdd  c9        ret     
 
0cde  7e        ld      a,(hl)
0cdf  fe02      cp      #02
0ce1  2ad517    ld      hl,(#17d5)
0ce4  0603      ld      b,#03
0ce6  0e01      ld      c,#01
0ce8  d2ef0c    jp      nc,#0cef
0ceb  0605      ld      b,#05
0ced  0e20      ld      c,#20
0cef  7e        ld      a,(hl)
0cf0  feff      cp      #ff
0cf2  c8        ret     z
 
0cf3  feaa      cp      #aa
0cf5  cafd0c    jp      z,#0cfd
0cf8  fe28      cp      #28
0cfa  c2ff0c    jp      nz,#0cff
0cfd  b7        or      a
0cfe  c9        ret     
 
0cff  79        ld      a,c
0d00  cd3a10    call    #103a
0d03  05        dec     b
0d04  c2ef0c    jp      nz,#0cef
0d07  b1        or      c
0d08  37        scf     
0d09  c9        ret     
 
0d0a  af        xor     a
0d0b  77        ld      (hl),a
0d0c  23        inc     hl
0d0d  05        dec     b
0d0e  c20b0d    jp      nz,#0d0b
0d11  2f        cpl     
0d12  77        ld      (hl),a
0d13  23        inc     hl
0d14  77        ld      (hl),a
0d15  c9        ret     
 
0d16  b7        or      a
0d17  7e        ld      a,(hl)
0d18  feff      cp      #ff
0d1a  37        scf     
0d1b  c8        ret     z
 
0d1c  b7        or      a
0d1d  c8        ret     z
 
0d1e  19        add     hl,de
0d1f  c3170d    jp      #0d17
0d22  cd3610    call    #1036
0d25  7e        ld      a,(hl)
0d26  23        inc     hl
0d27  e5        push    hl
0d28  cd4010    call    #1040
0d2b  09        add     hl,bc
0d2c  7c        ld      a,h
0d2d  12        ld      (de),a
0d2e  1b        dec     de
0d2f  7d        ld      a,l
0d30  12        ld      (de),a
0d31  13        inc     de
0d32  13        inc     de
0d33  3e01      ld      a,#01
0d35  12        ld      (de),a
0d36  13        inc     de
0d37  e1        pop     hl
0d38  7e        ld      a,(hl)
0d39  12        ld      (de),a
0d3a  13        inc     de
0d3b  af        xor     a
0d3c  12        ld      (de),a
0d3d  c9        ret     
 
0d3e  7b        ld      a,e
0d3f  0600      ld      b,#00
0d41  cd6a0d    call    #0d6a
0d44  d0        ret     nc
 
0d45  7b        ld      a,e
0d46  cd740d    call    #0d74
0d49  d8        ret     c
 
0d4a  7e        ld      a,(hl)
0d4b  e5        push    hl
0d4c  cd3610    call    #1036
0d4f  cd3f10    call    #103f
0d52  19        add     hl,de
0d53  eb        ex      de,hl
0d54  e1        pop     hl
0d55  e5        push    hl
0d56  2b        dec     hl
0d57  2b        dec     hl
0d58  72        ld      (hl),d
0d59  2b        dec     hl
0d5a  73        ld      (hl),e
0d5b  21207f    ld      hl,#7f20
0d5e  19        add     hl,de
0d5f  e1        pop     hl
0d60  d0        ret     nc
 
0d61  e5        push    hl
0d62  210078    ld      hl,#7800
0d65  19        add     hl,de
0d66  e1        pop     hl
0d67  d8        ret     c
 
0d68  04        inc     b
0d69  c9        ret     
 
0d6a  0f        rrca    
0d6b  d8        ret     c
 
0d6c  0f        rrca    
0d6d  d8        ret     c
 
0d6e  0f        rrca    
0d6f  d8        ret     c
 
0d70  0f        rrca    
0d71  d8        ret     c
 
0d72  0f        rrca    
0d73  c9        ret     
 
0d74  0f        rrca    
0d75  d0        ret     nc
 
0d76  0f        rrca    
0d77  d0        ret     nc
 
0d78  0f        rrca    
0d79  d0        ret     nc
 
0d7a  0f        rrca    
0d7b  d0        ret     nc
 
0d7c  0f        rrca    
0d7d  c9        ret     
 
0d7e  7e        ld      a,(hl)
0d7f  fe02      cp      #02
0d81  3e20      ld      a,#20
0d83  0605      ld      b,#05
0d85  21c0ff    ld      hl,#ffc0
0d88  da920d    jp      c,#0d92
0d8b  21ffff    ld      hl,#ffff
0d8e  3e01      ld      a,#01
0d90  0603      ld      b,#03
0d92  19        add     hl,de
0d93  eb        ex      de,hl
0d94  cd4010    call    #1040
0d97  eb        ex      de,hl
0d98  7e        ld      a,(hl)
0d99  feff      cp      #ff
0d9b  c2a00d    jp      nz,#0da0
0d9e  3600      ld      (hl),#00
0da0  05        dec     b
0da1  c8        ret     z
 
0da2  19        add     hl,de
0da3  c3980d    jp      #0d98
0da6  e5        push    hl
0da7  d5        push    de
0da8  1a        ld      a,(de)
0da9  feff      cp      #ff
0dab  caee0d    jp      z,#0dee
0dae  4f        ld      c,a
0daf  07        rlca    
0db0  0600      ld      b,#00
0db2  d2b70d    jp      nc,#0db7
0db5  06ff      ld      b,#ff
0db7  09        add     hl,bc
0db8  3a4f18    ld      a,(#184f)
0dbb  be        cp      (hl)
0dbc  13        inc     de
0dbd  cae60d    jp      z,#0de6
0dc0  7e        ld      a,(hl)
0dc1  cd510e    call    #0e51
0dc4  dad20d    jp      c,#0dd2
0dc7  1a        ld      a,(de)
0dc8  be        cp      (hl)
0dc9  c2ce0d    jp      nz,#0dce
0dcc  3600      ld      (hl),#00
0dce  13        inc     de
0dcf  c3a80d    jp      #0da8
0dd2  e5        push    hl
0dd3  d5        push    de
0dd4  eb        ex      de,hl
0dd5  210078    ld      hl,#7800
0dd8  19        add     hl,de
0dd9  d1        pop     de
0dda  e1        pop     hl
0ddb  dace0d    jp      c,#0dce
0dde  3e01      ld      a,#01
0de0  329e17    ld      (#179e),a
0de3  c3cc0d    jp      #0dcc
0de6  229f17    ld      (#179f),hl
0de9  3e02      ld      a,#02
0deb  c3e00d    jp      #0de0
0dee  d1        pop     de
0def  e1        pop     hl
0df0  c9        ret     
 
0df1  2ab017    ld      hl,(#17b0)
0df4  44        ld      b,h
0df5  4d        ld      c,l
0df6  2aae17    ld      hl,(#17ae)
0df9  af        xor     a
0dfa  32da17    ld      (#17da),a
0dfd  79        ld      a,c
0dfe  cd4b0f    call    #0f4b
0e01  c9        ret     
 
0e02  214f10    ld      hl,#104f
0e05  cd670a    call    #0a67
0e08  c9        ret     
 
0e09  e5        push    hl
0e0a  d5        push    de
0e0b  c5        push    bc
0e0c  1a        ld      a,(de)
0e0d  feff      cp      #ff
0e0f  ca4d0e    jp      z,#0e4d
0e12  4f        ld      c,a
0e13  07        rlca    
0e14  0600      ld      b,#00
0e16  d21b0e    jp      nc,#0e1b
0e19  06ff      ld      b,#ff
0e1b  09        add     hl,bc
0e1c  3a4f18    ld      a,(#184f)
0e1f  be        cp      (hl)
0e20  ca450e    jp      z,#0e45
0e23  7e        ld      a,(hl)
0e24  cd510e    call    #0e51
0e27  da310e    jp      c,#0e31
0e2a  13        inc     de
0e2b  1a        ld      a,(de)
0e2c  77        ld      (hl),a
0e2d  13        inc     de
0e2e  c30c0e    jp      #0e0c
0e31  e5        push    hl
0e32  d5        push    de
0e33  eb        ex      de,hl
0e34  210078    ld      hl,#7800
0e37  19        add     hl,de
0e38  d1        pop     de
0e39  e1        pop     hl
0e3a  da2a0e    jp      c,#0e2a
0e3d  3e01      ld      a,#01
0e3f  329e17    ld      (#179e),a
0e42  c32a0e    jp      #0e2a
0e45  229f17    ld      (#179f),hl
0e48  3e02      ld      a,#02
0e4a  c33f0e    jp      #0e3f
0e4d  c1        pop     bc
0e4e  d1        pop     de
0e4f  e1        pop     hl
0e50  c9        ret     
 
0e51  e5        push    hl
0e52  2aa717    ld      hl,(#17a7)
0e55  cd5a0e    call    #0e5a
0e58  e1        pop     hl
0e59  c9        ret     
 
0e5a  c5        push    bc
0e5b  4f        ld      c,a
0e5c  7e        ld      a,(hl)
0e5d  feff      cp      #ff
0e5f  79        ld      a,c
0e60  c1        pop     bc
0e61  c8        ret     z
 
0e62  be        cp      (hl)
0e63  23        inc     hl
0e64  c25a0e    jp      nz,#0e5a
0e67  37        scf     
0e68  c9        ret     
 
0e69  e5        push    hl
0e6a  f5        push    af
0e6b  210015    ld      hl,#1500
0e6e  223701    ld      (#0137),hl
0e71  3e7d      ld      a,#7d
0e73  323901    ld      (#0139),a
0e76  215315    ld      hl,#1553
0e79  224001    ld      (#0140),hl
0e7c  3e79      ld      a,#79
0e7e  324201    ld      (#0142),a
0e81  af        xor     a
0e82  324b01    ld      (#014b),a
0e85  f1        pop     af
0e86  e1        pop     hl
0e87  c9        ret     
 
0e88  e5        push    hl
0e89  f5        push    af
0e8a  219215    ld      hl,#1592
0e8d  c3790e    jp      #0e79
0e90  e5        push    hl
0e91  f5        push    af
0e92  21f715    ld      hl,#15f7
0e95  224901    ld      (#0149),hl
0e98  3eb5      ld      a,#b5
0e9a  c3820e    jp      #0e82
0e9d  e5        push    hl
0e9e  f5        push    af
0e9f  213616    ld      hl,#1636
0ea2  223701    ld      (#0137),hl
0ea5  3e7d      ld      a,#7d
0ea7  323901    ld      (#0139),a
0eaa  218716    ld      hl,#1687
0ead  c3790e    jp      #0e79
0eb0  e5        push    hl
0eb1  f5        push    af
0eb2  21e416    ld      hl,#16e4
0eb5  223701    ld      (#0137),hl
0eb8  3e7d      ld      a,#7d
0eba  323901    ld      (#0139),a
0ebd  af        xor     a
0ebe  c37e0e    jp      #0e7e
0ec1  e5        push    hl
0ec2  f5        push    af
0ec3  211d17    ld      hl,#171d
0ec6  224901    ld      (#0149),hl
0ec9  3e79      ld      a,#79
0ecb  c3820e    jp      #0e82
0ece  56        ld      d,(hl)
0ecf  3eff      ld      a,#ff
0ed1  32a217    ld      (#17a2),a
0ed4  be        cp      (hl)
0ed5  c8        ret     z
 
0ed6  23        inc     hl
0ed7  5e        ld      e,(hl)
0ed8  23        inc     hl
0ed9  46        ld      b,(hl)
0eda  23        inc     hl
0edb  4e        ld      c,(hl)
0edc  23        inc     hl
0edd  e5        push    hl
0ede  cde50e    call    #0ee5
0ee1  e1        pop     hl
0ee2  c3ce0e    jp      #0ece
0ee5  d5        push    de
0ee6  eb        ex      de,hl
0ee7  78        ld      a,b
0ee8  f5        push    af
0ee9  112000    ld      de,#0020
0eec  3aa217    ld      a,(#17a2)
0eef  77        ld      (hl),a
0ef0  19        add     hl,de
0ef1  05        dec     b
0ef2  c2ef0e    jp      nz,#0eef
0ef5  f1        pop     af
0ef6  d1        pop     de
0ef7  13        inc     de
0ef8  47        ld      b,a
0ef9  0d        dec     c
0efa  c2e50e    jp      nz,#0ee5
0efd  c9        ret     
 
0efe  111b80    ld      de,#801b
0f01  21ca17    ld      hl,#17ca
0f04  3a9c17    ld      a,(#179c)
0f07  c32f06    jp      #062f
0f0a  c5        push    bc
0f0b  70        ld      (hl),b
0f0c  2b        dec     hl
0f0d  71        ld      (hl),c
0f0e  23        inc     hl
0f0f  23        inc     hl
0f10  77        ld      (hl),a
0f11  23        inc     hl
0f12  73        ld      (hl),e
0f13  23        inc     hl
0f14  72        ld      (hl),d
0f15  1a        ld      a,(de)
0f16  23        inc     hl
0f17  77        ld      (hl),a
0f18  47        ld      b,a
0f19  23        inc     hl
0f1a  13        inc     de
0f1b  1a        ld      a,(de)
0f1c  77        ld      (hl),a
0f1d  58        ld      e,b
0f1e  57        ld      d,a
0f1f  e1        pop     hl
0f20  c3090e    jp      #0e09
0f23  e5        push    hl
0f24  d5        push    de
0f25  c5        push    bc
0f26  af        xor     a
0f27  32da17    ld      (#17da),a
0f2a  010606    ld      bc,#0606
0f2d  79        ld      a,c
0f2e  cd4b0f    call    #0f4b
0f31  3ada17    ld      a,(#17da)
0f34  b7        or      a
0f35  c2470f    jp      nz,#0f47
0f38  3e01      ld      a,#01
0f3a  32da17    ld      (#17da),a
0f3d  e5        push    hl
0f3e  21faff    ld      hl,#fffa
0f41  19        add     hl,de
0f42  eb        ex      de,hl
0f43  e1        pop     hl
0f44  c32a0f    jp      #0f2a
0f47  c1        pop     bc
0f48  d1        pop     de
0f49  e1        pop     hl
0f4a  c9        ret     
 
0f4b  f5        push    af
0f4c  e5        push    hl
0f4d  1a        ld      a,(de)
0f4e  77        ld      (hl),a
0f4f  23        inc     hl
0f50  13        inc     de
0f51  0d        dec     c
0f52  c24d0f    jp      nz,#0f4d
0f55  e1        pop     hl
0f56  d5        push    de
0f57  112000    ld      de,#0020
0f5a  19        add     hl,de
0f5b  d1        pop     de
0f5c  3ada17    ld      a,(#17da)
0f5f  b7        or      a
0f60  ca6a0f    jp      z,#0f6a
0f63  e5        push    hl
0f64  21f4ff    ld      hl,#fff4
0f67  19        add     hl,de
0f68  eb        ex      de,hl
0f69  e1        pop     hl
0f6a  f1        pop     af
0f6b  4f        ld      c,a
0f6c  05        dec     b
0f6d  c24b0f    jp      nz,#0f4b
0f70  c9        ret     
 
0f71  cdb00e    call    #0eb0
0f74  cd39c0    call    #c039
0f77  060a      ld      b,#0a
0f79  114b80    ld      de,#804b
0f7c  cd42c0    call    #c042
0f7f  3a2301    ld      a,(#0123)
0f82  111080    ld      de,#8010
0f85  0e00      ld      c,#00
0f87  cdb00f    call    #0fb0
0f8a  3a0401    ld      a,(#0104)
0f8d  fe07      cp      #07
0f8f  d29a0f    jp      nc,#0f9a
0f92  3a3901    ld      a,(#0139)
0f95  0f        rrca    
0f96  da920f    jp      c,#0f92
0f99  c9        ret     
 
0f9a  060b      ld      b,#0b
0f9c  115780    ld      de,#8057
0f9f  cd42c0    call    #c042
0fa2  3a2401    ld      a,(#0124)
0fa5  111b80    ld      de,#801b
0fa8  0e00      ld      c,#00
0faa  cdb00f    call    #0fb0
0fad  c3920f    jp      #0f92
0fb0  d5        push    de
0fb1  1b        dec     de
0fb2  1b        dec     de
0fb3  fe64      cp      #64
0fb5  060e      ld      b,#0e
0fb7  dabe0f    jp      c,#0fbe
0fba  d664      sub     #64
0fbc  0601      ld      b,#01
0fbe  f5        push    af
0fbf  cd42c0    call    #c042
0fc2  f1        pop     af
0fc3  d1        pop     de
0fc4  f5        push    af
0fc5  d5        push    de
0fc6  cd3fc0    call    #c03f
0fc9  d1        pop     de
0fca  f1        pop     af
0fcb  d8        ret     c
 
0fcc  0600      ld      b,#00
0fce  c342c0    jp      #c042
0fd1  cd690e    call    #0e69
0fd4  21f917    ld      hl,#17f9
0fd7  cd0a0d    call    #0d0a
0fda  061c      ld      b,#1c
0fdc  21db17    ld      hl,#17db
0fdf  cd0a0d    call    #0d0a
0fe2  0619      ld      b,#19
0fe4  213418    ld      hl,#1834
0fe7  cd0a0d    call    #0d0a
0fea  3a0401    ld      a,(#0104)
0fed  fe07      cp      #07
0fef  3e03      ld      a,#03
0ff1  daf90f    jp      c,#0ff9
0ff4  3e05      ld      a,#05
0ff6  329c17    ld      (#179c),a
0ff9  32bf10    ld      (#10bf),a
0ffc  210000    ld      hl,#0000
0fff  222301    ld      (#0123),hl

1002  21c617    ld      hl,#17c6
1005  0613      ld      b,#13
1007  3600      ld      (hl),#00
1009  23        inc     hl
100a  05        dec     b
100b  c20710    jp      nz,#1007
100e  214d80    ld      hl,#804d
1011  11bf12    ld      de,#12bf
1014  cd090e    call    #0e09
1017  111080    ld      de,#8010
101a  3abf10    ld      a,(#10bf)
101d  0e00      ld      c,#00
101f  cd3fc0    call    #c03f
1022  215880    ld      hl,#8058
1025  11dc11    ld      de,#11dc
1028  cd090e    call    #0e09
102b  111b80    ld      de,#801b
102e  3a9c17    ld      a,(#179c)
1031  0e00      ld      c,#00
1033  c33fc0    jp      #c03f
1036  87        add     a,a
1037  21d010    ld      hl,#10d0
103a  85        add     a,l
103b  6f        ld      l,a
103c  d0        ret     nc
 
103d  24        inc     h
103e  c9        ret     
 
103f  7e        ld      a,(hl)
1040  6f        ld      l,a
1041  07        rlca    
1042  2600      ld      h,#00
1044  d0        ret     nc
 
1045  26ff      ld      h,#ff
1047  c9        ret     
 
1048  91        sub     c
1049  1038      djnz    #1083           ; (56)
104b  8d        adc     a,l
104c  86        add     a,(hl)
104d  ed86      db      #ed, #86        ; Undocumented 8 T-State NOP
104f  0e87      ld      c,#87
1051  04        inc     b
1052  08        ex      af,af''
1053  1814      jr      #1069           ; (20)
1055  3814      jr      c,#106b         ; (20)
1057  91        sub     c
1058  1038      djnz    #1092           ; (56)
105a  c0        ret     nz
 
105b  83        add     a,e
105c  e0        ret     po
 
105d  83        add     a,e
105e  00        nop     
105f  84        add     a,h
1060  04        inc     b
1061  07        rlca    
1062  58        ld      e,b
1063  14        inc     d
1064  74        ld      (hl),h
1065  14        inc     d
1066  ca1724    jp      z,#2417
1069  019610    ld      bc,#1096
106c  14        inc     d
106d  ba        cp      d
106e  83        add     a,e
106f  fc831c    call    m,#1c83
1072  84        add     a,h
1073  04        inc     b
1074  07        rlca    
1075  58        ld      e,b
1076  14        inc     d
1077  74        ld      (hl),h
1078  14        inc     d
1079  d7        rst     #10
107a  17        rla     
107b  23        inc     hl
107c  0140ff    ld      bc,#ff40
107f  39        add     hl,sp
1080  ff        rst     #38
1081  48        ld      c,b
1082  ff        rst     #38
1083  49        ld      c,c
1084  ff        rst     #38
1085  50        ld      d,b
1086  ff        rst     #38
1087  51        ld      d,c
1088  ff        rst     #38
1089  58        ld      e,b
108a  ff        rst     #38
108b  59        ld      e,c
108c  ff        rst     #38
108d  30ff      jr      nc,#108e        ; (-1)
108f  31ffa0    ld      sp,#a0ff
1092  0a        ld      a,(bc)
1093  aa        xor     d
1094  28ff      jr      z,#1095         ; (-1)
1096  ddd0      ret     nc
 
1098  77        ld      (hl),a
1099  70        ld      (hl),b
109a  34        inc     (hl)
109b  1c        inc     e
109c  0d        dec     c
109d  07        rlca    
109e  ff        rst     #38
109f  90        sub     b
10a0  14        inc     d
10a1  4f        ld      c,a
10a2  84        add     a,h
10a3  02        ld      (bc),a
10a4  04        inc     b
10a5  b4        or      h
10a6  14        inc     d
10a7  cd8306    call    #0683
10aa  0b        dec     bc
10ab  90        sub     b
10ac  14        inc     d
10ad  4f        ld      c,a
10ae  84        add     a,h
10af  02        ld      (bc),a
10b0  04        inc     b
10b1  98        sbc     a,b
10b2  14        inc     d
10b3  0e84      ld      c,#84
10b5  04        inc     b
10b6  07        rlca    
10b7  ff        rst     #38
10b8  ff        rst     #38
10b9  0a        ld      a,(bc)
10ba  42        ld      b,d
10bb  0f        rrca    
10bc  280f      jr      z,#10cd         ; (15)
10be  2603      ld      h,#03
10c0  ff        rst     #38
10c1  ff        rst     #38
10c2  ff        rst     #38
10c3  ff        rst     #38
10c4  ff        rst     #38
10c5  ff        rst     #38
10c6  ff        rst     #38
10c7  ff        rst     #38
10c8  07        rlca    
10c9  00        nop     
10ca  15        dec     d
10cb  01ffff    ld      bc,#ffff
10ce  05        dec     b
10cf  00        nop     
10d0  0100ff    ld      bc,#ff00
10d3  01c002    ld      bc,#02c0
10d6  40        ld      b,b
10d7  03        inc     bc
10d8  c20018    jp      nz,#1800
10db  11be01    ld      de,#01be
10de  22119f    ld      (#9f11),hl
10e1  02        ld      (bc),a
10e2  2c        inc     l
10e3  115f03    ld      de,#035f
10e6  34        inc     (hl)
10e7  112e18    ld      de,#182e
10ea  7f        ld      a,a
10eb  1083      djnz    #1070           ; (-125)
10ed  1087      djnz    #1076           ; (-121)
10ef  108f      djnz    #1080           ; (-113)
10f1  108b      djnz    #107e           ; (-117)
10f3  10c8      djnz    #10bd           ; (-56)
10f5  17        rla     
10f6  35        dec     (hl)
10f7  1860      jr      #1159           ; (96)
10f9  116811    ld      de,#1168
10fc  4c        ld      c,h
10fd  115611    ld      de,#1156
1100  dc177d    call    c,#7d17
1103  1081      djnz    #1086           ; (-127)
1105  1085      djnz    #108c           ; (-123)
1107  108d      djnz    #1096           ; (-115)
1109  1089      djnz    #1094           ; (-119)
110b  10c9      djnz    #10d6           ; (-55)
110d  17        rla     
110e  fa172c    jp      m,#2c17
1111  113411    ld      de,#1134
1114  1811      jr      #1127           ; (17)
1116  221180    ld      (#8011),hl
1119  119711    ld      de,#1197
111c  00        nop     
111d  00        nop     
111e  010018    ld      bc,#1800
1121  11ae11    ld      de,#11ae
1124  c5        push    bc
1125  110000    ld      de,#0000
1128  ff        rst     #38
1129  ff        rst     #38
112a  2211dc    ld      (#dc11),hl
112d  110000    ld      de,#0000
1130  e0        ret     po
 
1131  ff        rst     #38
1132  2c        inc     l
1133  11f511    ld      de,#11f5
1136  00        nop     
1137  00        nop     
1138  2000      jr      nz,#113a        ; (0)
113a  34        inc     (hl)
113b  110e12    ld      de,#120e
113e  2d        dec     l
113f  12        ld      (de),a
1140  48        ld      c,b
1141  12        ld      (de),a
1142  2d        dec     l
1143  12        ld      (de),a
1144  0e12      ld      c,#12
1146  2d        dec     l
1147  12        ld      (de),a
1148  48        ld      c,b
1149  12        ld      (de),a
114a  00        nop     
114b  00        nop     
114c  63        ld      h,e
114d  12        ld      (de),a
114e  7a        ld      a,d
114f  12        ld      (de),a
1150  00        nop     
1151  00        nop     
1152  01004c    ld      bc,#4c00
1155  119112    ld      de,#1291
1158  a8        xor     b
1159  12        ld      (de),a
115a  00        nop     
115b  00        nop     
115c  ff        rst     #38
115d  ff        rst     #38
115e  56        ld      d,(hl)
115f  11bf12    ld      de,#12bf
1162  00        nop     
1163  00        nop     
1164  e0        ret     po
 
1165  ff        rst     #38
1166  60        ld      h,b
1167  11d812    ld      de,#12d8
116a  00        nop     
116b  00        nop     
116c  2000      jr      nz,#116e        ; (0)
116e  68        ld      l,b
116f  11f112    ld      de,#12f1
1172  15        dec     d
1173  13        inc     de
1174  f1        pop     af
1175  12        ld      (de),a
1176  15        dec     d
1177  13        inc     de
1178  f1        pop     af
1179  12        ld      (de),a
117a  15        dec     d
117b  13        inc     de
117c  f1        pop     af
117d  12        ld      (de),a
117e  00        nop     
117f  00        nop     
1180  bf        cp      a
1181  aa        xor     d
1182  01aa1f    ld      bc,#1faa
1185  0a        ld      a,(bc)
1186  01a01f    ld      bc,#1fa0
1189  0a        ld      a,(bc)
118a  01aa01    ld      bc,#01aa
118d  aa        xor     d
118e  1e0a      ld      e,#0a
1190  01a01f    ld      bc,#1fa0
1193  aa        xor     d
1194  01aaff    ld      bc,#ffaa
1197  bf        cp      a
1198  0a        ld      a,(bc)
1199  01aa01    ld      bc,#01aa
119c  a0        and     b
119d  1f        rra     
119e  aa        xor     d
119f  20aa      jr      nz,#114b        ; (-86)
11a1  01aa01    ld      bc,#01aa
11a4  a0        and     b
11a5  1eaa      ld      e,#aa
11a7  1f        rra     
11a8  0a        ld      a,(bc)
11a9  01aa01    ld      bc,#01aa
11ac  a0        and     b
11ad  ff        rst     #38
11ae  c0        ret     nz
 
11af  aa        xor     d
11b0  01aa1f    ld      bc,#1faa
11b3  0a        ld      a,(bc)
11b4  01a01e    ld      bc,#1ea0
11b7  aa        xor     d
11b8  01aa01    ld      bc,#01aa
11bb  a0        and     b
11bc  1f        rra     
11bd  0a        ld      a,(bc)
11be  01a01f    ld      bc,#1fa0
11c1  aa        xor     d
11c2  01aaff    ld      bc,#ffaa
11c5  bf        cp      a
11c6  0a        ld      a,(bc)
11c7  01aa01    ld      bc,#01aa
11ca  a0        and     b
11cb  1f        rra     
11cc  aa        xor     d
11cd  1e0a      ld      e,#0a
11cf  01aa01    ld      bc,#01aa
11d2  aa        xor     d
11d3  20aa      jr      nz,#117f        ; (-86)
11d5  1f        rra     
11d6  0a        ld      a,(bc)
11d7  01aa01    ld      bc,#01aa
11da  a0        and     b
11db  ff        rst     #38
11dc  c0        ret     nz
 
11dd  281f      jr      z,#11fe         ; (31)
11df  a0        and     b
11e0  012801    ld      bc,#0128
11e3  0a        ld      a,(bc)
11e4  1eaa      ld      e,#aa
11e6  01aa01    ld      bc,#01aa
11e9  aa        xor     d
11ea  1eaa      ld      e,#aa
11ec  01aa01    ld      bc,#01aa
11ef  aa        xor     d
11f0  1ea0      ld      e,#a0
11f2  02        ld      (bc),a
11f3  0a        ld      a,(bc)
11f4  ff        rst     #38
11f5  bf        cp      a
11f6  a0        and     b
11f7  02        ld      (bc),a
11f8  0a        ld      a,(bc)
11f9  1eaa      ld      e,#aa
11fb  01aa01    ld      bc,#01aa
11fe  aa        xor     d
11ff  1eaa      ld      e,#aa
1201  01aa01    ld      bc,#01aa
1204  aa        xor     d
1205  1ea0      ld      e,#a0
1207  012801    ld      bc,#0128
120a  0a        ld      a,(bc)
120b  1f        rra     
120c  28ff      jr      z,#120d         ; (-1)
120e  bf        cp      a
120f  0e01      ld      c,#01
1211  c301b0    jp      #b001
1214  1efd      ld      e,#fd
1216  01be01    ld      bc,#01be
1219  7f        ld      a,a
121a  1e3c      ld      e,#3c
121c  016901    ld      bc,#0169
121f  fc1efd    call    m,#fd1e
1222  01be01    ld      bc,#01be
1225  7f        ld      a,a
1226  1e0e      ld      e,#0e
1228  01c301    ld      bc,#01c3
122b  b0        or      b
122c  ff        rst     #38
122d  bf        cp      a
122e  0b        dec     bc
122f  02        ld      (bc),a
1230  e0        ret     po
 
1231  1ef6      ld      e,#f6
1233  01c301    ld      bc,#01c3
1236  9f        sbc     a,a
1237  1e3d      ld      e,#3d
1239  01be01    ld      bc,#01be
123c  7c        ld      a,h
123d  1ef6      ld      e,#f6
123f  01c301    ld      bc,#01c3
1242  9f        sbc     a,a
1243  1e0b      ld      e,#0b
1245  02        ld      (bc),a
1246  e0        ret     po
 
1247  ff        rst     #38
1248  bf        cp      a
1249  2f        cpl     
124a  02        ld      (bc),a
124b  f8        ret     m
 
124c  1edb      ld      e,#db
124e  01c301    ld      bc,#01c3
1251  e7        rst     #20
1252  1e36      ld      e,#36
1254  01ff01    ld      bc,#01ff
1257  9c        sbc     a,h
1258  1edb      ld      e,#db
125a  01c301    ld      bc,#01c3
125d  e7        rst     #20
125e  1e2f      ld      e,#2f
1260  02        ld      (bc),a
1261  f8        ret     m
 
1262  ff        rst     #38
1263  bf        cp      a
1264  dd01dd1f  ld      bc,#1fdd
1268  07        rlca    
1269  01701f    ld      bc,#1f70
126c  0d        dec     c
126d  01dd01    ld      bc,#01dd
1270  dd1e07    ld      e,#07
1273  01701f    ld      bc,#1f70
1276  dd01ddff  ld      bc,#ffdd
127a  bf        cp      a
127b  0d        dec     c
127c  01dd01    ld      bc,#01dd
127f  d0        ret     nc
 
1280  1f        rra     
1281  77        ld      (hl),a
1282  20dd      jr      nz,#1261        ; (-35)
1284  01dd01    ld      bc,#01dd
1287  d0        ret     nc
 
1288  1e77      ld      e,#77
128a  1f        rra     
128b  0d        dec     c
128c  01dd01    ld      bc,#01dd
128f  d0        ret     nc
 
1290  ff        rst     #38
1291  c0        ret     nz
 
1292  77        ld      (hl),a
1293  01771f    ld      bc,#1f77
1296  0d        dec     c
1297  01d01e    ld      bc,#1ed0
129a  77        ld      (hl),a
129b  017701    ld      bc,#0177
129e  70        ld      (hl),b
129f  1f        rra     
12a0  0d        dec     c
12a1  01d01f    ld      bc,#1fd0
12a4  77        ld      (hl),a
12a5  0177ff    ld      bc,#ff77
12a8  bf        cp      a
12a9  07        rlca    
12aa  017701    ld      bc,#0177
12ad  70        ld      (hl),b
12ae  1f        rra     
12af  dd1e07    ld      e,#07
12b2  017701    ld      bc,#0177
12b5  77        ld      (hl),a
12b6  20dd      jr      nz,#1295        ; (-35)
12b8  1f        rra     
12b9  07        rlca    
12ba  017701    ld      bc,#0177
12bd  70        ld      (hl),b
12be  ff        rst     #38
12bf  c0        ret     nz
 
12c0  34        inc     (hl)
12c1  1f        rra     
12c2  d0        ret     nc
 
12c3  011c01    ld      bc,#011c
12c6  0d        dec     c
12c7  1e77      ld      e,#77
12c9  017701    ld      bc,#0177
12cc  77        ld      (hl),a
12cd  1edd      ld      e,#dd
12cf  01dd01    ld      bc,#01dd
12d2  dd1e70    ld      e,#70
12d5  02        ld      (bc),a
12d6  07        rlca    
12d7  ff        rst     #38
12d8  bf        cp      a
12d9  70        ld      (hl),b
12da  02        ld      (bc),a
12db  07        rlca    
12dc  1edd      ld      e,#dd
12de  01dd01    ld      bc,#01dd
12e1  dd1e77    ld      e,#77
12e4  017701    ld      bc,#0177
12e7  77        ld      (hl),a
12e8  1ed0      ld      e,#d0
12ea  011c01    ld      bc,#011c
12ed  0d        dec     c
12ee  1f        rra     
12ef  34        inc     (hl)
12f0  ff        rst     #38
12f1  a0        and     b
12f2  a0        and     b
12f3  3f        ccf     
12f4  fc0a0a    call    m,#0a0a
12f7  00        nop     
12f8  03        inc     bc
12f9  f5        push    af
12fa  5f        ld      e,a
12fb  c0        ret     nz
 
12fc  00        nop     
12fd  a0        and     b
12fe  3d        dec     a
12ff  55        ld      d,l
1300  55        ld      d,l
1301  7c        ld      a,h
1302  0f        rrca    
1303  0f        rrca    
1304  f5        push    af
1305  69        ld      l,c
1306  69        ld      l,c
1307  5f        ld      e,a
1308  f0        ret     p
 
1309  3d        dec     a
130a  76        halt    
130b  95        sub     l
130c  56        ld      d,(hl)
130d  9d        sbc     a,l
130e  7c        ld      a,h
130f  f5        push    af
1310  55        ld      d,l
1311  69        ld      l,c
1312  69        ld      l,c
1313  55        ld      d,l
1314  5f        ld      e,a
1315  3f        ccf     
1316  fca00a    call    m,#0aa0
1319  3f        ccf     
131a  feff      cp      #ff
131c  ff        rst     #38
131d  02        ld      (bc),a
131e  80        add     a,b
131f  ff        rst     #38
1320  ff        rst     #38
1321  f5        push    af
1322  57        ld      d,a
1323  f0        ret     p
 
1324  0f        rrca    
1325  d5        push    de
1326  5f        ld      e,a
1327  fb        ei      
1328  55        ld      d,l
1329  ff        rst     #38
132a  ff        rst     #38
132b  55        ld      d,l
132c  7f        ld      a,a
132d  3f        ccf     
132e  5a        ld      e,d
132f  bf        cp      a
1330  fea5      cp      #a5
1332  fc03d6    call    m,#d603
1335  a9        xor     c
1336  6a        ld      l,d
1337  97        sub     a
1338  c0        ret     nz
 
1339  81        add     a,c
133a  80        add     a,b
133b  04        inc     b
133c  0681      ld      b,#81
133e  89        adc     a,c
133f  04        inc     b
1340  0e81      ld      c,#81
1342  9a        sbc     a,d
1343  04        inc     b
1344  0682      ld      b,#82
1346  0f        rrca    
1347  1a        ld      a,(de)
1348  02        ld      (bc),a
1349  82        add     a,d
134a  a3        and     e
134b  07        rlca    
134c  09        add     hl,bc
134d  82        add     a,d
134e  b4        or      h
134f  07        rlca    
1350  09        add     hl,bc
1351  83        add     a,e
1352  80        add     a,b
1353  04        inc     b
1354  0683      ld      b,#83
1356  9a        sbc     a,d
1357  04        inc     b
1358  0684      ld      b,#84
135a  29        add     hl,hl
135b  04        inc     b
135c  0e84      ld      c,#84
135e  a3        and     e
135f  05        dec     b
1360  03        inc     bc
1361  84        add     a,h
1362  ba        cp      d
1363  05        dec     b
1364  03        inc     bc
1365  85        add     a,l
1366  40        ld      b,b
1367  04        inc     b
1368  2086      jr      nz,#12f0        ; (-122)
136a  63        ld      h,e
136b  0605      ld      b,#05
136d  86        add     a,(hl)
136e  78        ld      a,b
136f  0605      ld      b,#05
1371  87        add     a,a
1372  2607      ld      h,#07
1374  02        ld      (bc),a
1375  87        add     a,a
1376  3807      jr      c,#137f         ; (7)
1378  02        ld      (bc),a
1379  86        add     a,(hl)
137a  6b        ld      l,e
137b  05        dec     b
137c  0a        ld      a,(bc)
137d  87        add     a,a
137e  0b        dec     bc
137f  08        ex      af,af'
1380  03        inc     bc
1381  87        add     a,a
1382  12        ld      (de),a
1383  08        ex      af,af'
1384  03        inc     bc
1385  ff        rst     #38
1386  80        add     a,b
1387  ef        rst     #28
1388  17        rla     
1389  02        ld      (bc),a
138a  81        add     a,c
138b  83        add     a,e
138c  0a        ld      a,(bc)
138d  02        ld      (bc),a
138e  81        add     a,c
138f  85        add     a,l
1390  04        inc     b
1391  07        rlca    
1392  81        add     a,c
1393  94        sub     h
1394  04        inc     b
1395  07        rlca    
1396  81        add     a,c
1397  9b        sbc     a,e
1398  09        add     hl,bc
1399  02        ld      (bc),a
139a  82        add     a,d
139b  a0        and     b
139c  04        inc     b
139d  0a        ld      a,(bc)
139e  82        add     a,d
139f  aa        xor     d
13a0  09        add     hl,bc
13a1  02        ld      (bc),a
13a2  82        add     a,d
13a3  b4        or      h
13a4  09        add     hl,bc
13a5  02        ld      (bc),a
13a6  82        add     a,d
13a7  b6        or      (hl)
13a8  04        inc     b
13a9  0a        ld      a,(bc)
13aa  83        add     a,e
13ab  c30304    jp      #0403
13ae  83        add     a,e
13af  d9        exx     
13b0  03        inc     bc
13b1  04        inc     b
13b2  84        add     a,h
13b3  23        inc     hl
13b4  110284    ld      de,#8402
13b7  3b        dec     sp
13b8  110284    ld      de,#8402
13bb  6a        ld      l,d
13bc  05        dec     b
13bd  0c        inc     c
13be  85        add     a,l
13bf  08        ex      af,af'
13c0  05        dec     b
13c1  1086      djnz    #1349           ; (-122)
13c3  43        ld      b,e
13c4  05        dec     b
13c5  05        dec     b
13c6  86        add     a,(hl)
13c7  4b        ld      c,e
13c8  060a      ld      b,#0a
13ca  86        add     a,(hl)
13cb  58        ld      e,b
13cc  05        dec     b
13cd  05        dec     b
13ce  86        add     a,(hl)
13cf  e609      and     #09
13d1  02        ld      (bc),a
13d2  87        add     a,a
13d3  0b        dec     bc
13d4  08        ex      af,af'
13d5  03        inc     bc
13d6  87        add     a,a
13d7  12        ld      (de),a
13d8  08        ex      af,af'
13d9  03        inc     bc
13da  86        add     a,(hl)
13db  f8        ret     m
 
13dc  09        add     hl,bc
13dd  02        ld      (bc),a
13de  ff        rst     #38
13df  81        add     a,c
13e0  e5        push    hl
13e1  0601      ld      b,#01
13e3  81        add     a,c
13e4  c602      add     a,#02
13e6  03        inc     bc
13e7  81        add     a,c
13e8  d7        rst     #10
13e9  02        ld      (bc),a
13ea  03        inc     bc
13eb  81        add     a,c
13ec  fa0601    jp      m,#0106
13ef  83        add     a,e
13f0  c30202    jp      #0202
13f3  83        add     a,e
13f4  db02      in      a,(#02)
13f6  02        ld      (bc),a
13f7  84        add     a,h
13f8  04        inc     b
13f9  07        rlca    
13fa  01841b    ld      bc,#1b84
13fd  07        rlca    
13fe  0184e3    ld      bc,#e384
1401  02        ld      (bc),a
1402  02        ld      (bc),a
1403  84        add     a,h
1404  fb        ei      
1405  02        ld      (bc),a
1406  02        ld      (bc),a
1407  86        add     a,(hl)
1408  45        ld      b,l
1409  0601      ld      b,#01
140b  86        add     a,(hl)
140c  5a        ld      e,d
140d  0601      ld      b,#01
140f  86        add     a,(hl)
1410  e602      and     #02
1412  03        inc     bc
1413  86        add     a,(hl)
1414  f7        rst     #30
1415  02        ld      (bc),a
1416  03        inc     bc
1417  ff        rst     #38
1418  00        nop     
1419  014000    ld      bc,#0040
141c  00        nop     
141d  05        dec     b
141e  50        ld      d,b
141f  00        nop     
1420  14        inc     d
1421  15        dec     d
1422  54        ld      d,h
1423  14        inc     d
1424  15        dec     d
1425  15        dec     d
1426  54        ld      d,h
1427  54        ld      d,h
1428  55        ld      d,l
1429  05        dec     b
142a  50        ld      d,b
142b  55        ld      d,l
142c  55        ld      d,l
142d  41        ld      b,c
142e  41        ld      b,c
142f  55        ld      d,l
1430  41        ld      b,c
1431  50        ld      d,b
1432  05        dec     b
1433  41        ld      b,c
1434  00        nop     
1435  15        dec     d
1436  54        ld      d,h
1437  00        nop     
1438  014001    ld      bc,#0140
143b  40        ld      b,b
143c  05        dec     b
143d  014050    ld      bc,#5040
1440  14        inc     d
1441  05        dec     b
1442  50        ld      d,b
1443  14        inc     d
1444  54        ld      d,h
1445  15        dec     d
1446  54        ld      d,h
1447  15        dec     d
1448  14        inc     d
1449  15        dec     d
144a  54        ld      d,h
144b  14        inc     d
144c  05        dec     b
144d  05        dec     b
144e  50        ld      d,b
144f  50        ld      d,b
1450  014141    ld      bc,#4141
1453  40        ld      b,b
1454  00        nop     
1455  15        dec     d
1456  54        ld      d,h
1457  00        nop     
1458  00        nop     
1459  0f        rrca    
145a  f0        ret     p
 
145b  00        nop     
145c  00        nop     
145d  3f        ccf     
145e  fc00ff    call    m,#ff00
1461  cc33ff    call    z,#ff33
1464  3f        ccf     
1465  c3c3fc    jp      #fcc3
1468  0f        rrca    
1469  cc33f0    call    z,#f033
146c  03        inc     bc
146d  ff        rst     #38
146e  ff        rst     #38
146f  c0        ret     nz
 
1470  00        nop     
1471  fc3f00    call    m,#003f
1474  00        nop     
1475  f0        ret     p
 
1476  0f        rrca    
1477  00        nop     
1478  00        nop     
1479  fc3f00    call    m,#003f
147c  03        inc     bc
147d  c3c3c0    jp      #c0c3
1480  0f        rrca    
1481  cc33f0    call    z,#f033
1484  3f        ccf     
1485  c3c3fc    jp      #fcc3
1488  03        inc     bc
1489  ff        rst     #38
148a  ff        rst     #38
148b  c0        ret     nz
 
148c  00        nop     
148d  0f        rrca    
148e  f0        ret     p
 
148f  00        nop     
1490  05        dec     b
1491  50        ld      d,b
1492  5b        ld      e,e
1493  64        ld      h,h
1494  69        ld      l,c
1495  99        sbc     a,c
1496  15        dec     d
1497  94        sub     h
1498  00        nop     
1499  0b        dec     bc
149a  f0        ret     p
 
149b  00        nop     
149c  e0        ret     po
 
149d  ed5e      im      2
149f  00        nop     
14a0  ba        cp      d
14a1  d7        rst     #10
14a2  57        ld      d,a
14a3  dcd175    call    c,#75d1
14a6  55        ld      d,l
14a7  d7        rst     #10
14a8  3e65      ld      a,#65
14aa  5c        ld      e,h
14ab  5f        ld      e,a
14ac  d5        push    de
14ad  1d        dec     e
14ae  e5        push    hl
14af  78        ld      a,b
14b0  26c3      ld      h,#c3
14b2  1b        dec     de
14b3  60        ld      h,b
14b4  00        nop     
14b5  00        nop     
14b6  97        sub     a
14b7  02        ld      (bc),a
14b8  1000      djnz    #14ba           ; (0)
14ba  011079    ld      bc,#7910
14bd  69        ld      l,c
14be  db20      in      a,(#20)
14c0  09        add     hl,bc
14c1  7e        ld      a,(hl)
14c2  76        halt    
14c3  4a        ld      c,d
14c4  76        halt    
14c5  1027      djnz    #14ee           ; (39)
14c7  15        dec     d
14c8  5f        ld      e,a
14c9  59        ld      e,c
14ca  f5        push    af
14cb  64        ld      h,h
14cc  d9        exx     
14cd  97        sub     a
14ce  7d        ld      a,l
14cf  d5        push    de
14d0  67        ld      h,a
14d1  95        sub     l
14d2  56        ld      d,(hl)
14d3  5f        ld      e,a
14d4  df        rst     #18
14d5  7f        ld      a,a
14d6  58        ld      e,b
14d7  54        ld      d,h
14d8  b9        cp      c
14d9  7d        ld      a,l
14da  f5        push    af
14db  df        rst     #18
14dc  55        ld      d,l
14dd  90        sub     b
14de  da5f56    jp      c,#565f
14e1  fd5c      ld      e,iyh
14e3  d8        ret     c
 
14e4  35        dec     (hl)
14e5  e5        push    hl
14e6  f9        ld      sp,hl
14e7  f5        push    af
14e8  f9        ld      sp,hl
14e9  6d        ld      l,l
14ea  01553e    ld      bc,#3e55
14ed  d4d580    call    nc,#80d5
14f0  00        nop     
14f1  b4        or      h
14f2  00        nop     
14f3  05        dec     b
14f4  4a        ld      c,d
14f5  80        add     a,b
14f6  d8        ret     c
 
14f7  10dc      djnz    #14d5           ; (-36)
14f9  10e0      djnz    #14db           ; (-32)
14fb  10e4      djnz    #14e1           ; (-28)
14fd  10ff      djnz    #14fe           ; (-1)
14ff  ff        rst     #38
1500  0f        rrca    
1501  80        add     a,b
1502  2000      jr      nz,#1504        ; (0)
1504  00        nop     
1505  3050      jr      nc,#1557        ; (80)
1507  08        ex      af,af'
1508  52        ld      d,d
1509  08        ex      af,af'
150a  54        ld      d,h
150b  1854      jr      #1561           ; (84)
150d  08        ex      af,af'
150e  54        ld      d,h
150f  1050      djnz    #1561           ; (80)
1511  08        ex      af,af'
1512  52        ld      d,d
1513  08        ex      af,af'
1514  54        ld      d,h
1515  1854      jr      #156b           ; (84)
1517  08        ex      af,af'
1518  54        ld      d,h
1519  1050      djnz    #156b           ; (80)
151b  08        ex      af,af'
151c  52        ld      d,d
151d  08        ex      af,af'
151e  54        ld      d,h
151f  1854      jr      #1575           ; (84)
1521  08        ex      af,af'
1522  54        ld      d,h
1523  0a        ld      a,(bc)
1524  52        ld      d,d
1525  0a        ld      a,(bc)
1526  54        ld      d,h
1527  0c        inc     c
1528  59        ld      e,c
1529  1000      djnz    #152b           ; (0)
152b  1057      djnz    #1584           ; (87)
152d  1000      djnz    #152f           ; (0)
152f  1055      djnz    #1586           ; (85)
1531  1847      jr      #157a           ; (71)
1533  08        ex      af,af'
1534  47        ld      b,a
1535  1855      jr      #158c           ; (85)
1537  08        ex      af,af'
1538  54        ld      d,h
1539  1847      jr      #1582           ; (71)
153b  08        ex      af,af'
153c  47        ld      b,a
153d  1854      jr      #1593           ; (84)
153f  08        ex      af,af'
1540  52        ld      d,d
1541  0a        ld      a,(bc)
1542  54        ld      d,h
1543  0a        ld      a,(bc)
1544  52        ld      d,d
1545  0c        inc     c
1546  49        ld      c,c
1547  184b      jr      #1594           ; (75)
1549  08        ex      af,af'
154a  50        ld      d,b
154b  1000      djnz    #154d           ; (0)
154d  1050      djnz    #159f           ; (80)
154f  1000      djnz    #1551           ; (0)
1551  10ff      djnz    #1552           ; (-1)
1553  0c        inc     c
1554  80        add     a,b
1555  2000      jr      nz,#1557        ; (0)
1557  00        nop     
1558  40        ld      b,b
1559  50        ld      d,b
155a  1000      djnz    #155c           ; (0)
155c  1057      djnz    #15b5           ; (87)
155e  1000      djnz    #1560           ; (0)
1560  1054      djnz    #15b6           ; (84)
1562  1000      djnz    #1564           ; (0)
1564  1057      djnz    #15bd           ; (87)
1566  1000      djnz    #1568           ; (0)
1568  1050      djnz    #15ba           ; (80)
156a  1000      djnz    #156c           ; (0)
156c  1057      djnz    #15c5           ; (87)
156e  1000      djnz    #1570           ; (0)
1570  1054      djnz    #15c6           ; (84)
1572  1000      djnz    #1574           ; (0)
1574  1057      djnz    #15cd           ; (87)
1576  1000      djnz    #1578           ; (0)
1578  1047      djnz    #15c1           ; (71)
157a  1000      djnz    #157c           ; (0)
157c  1055      djnz    #15d3           ; (85)
157e  1000      djnz    #1580           ; (0)
1580  1050      djnz    #15d2           ; (80)
1582  1000      djnz    #1584           ; (0)
1584  1054      djnz    #15da           ; (84)
1586  1000      djnz    #1588           ; (0)
1588  1047      djnz    #15d1           ; (71)
158a  1000      djnz    #158c           ; (0)
158c  104b      djnz    #15d9           ; (75)
158e  1000      djnz    #1590           ; (0)
1590  50        ld      d,b
1591  ff        rst     #38
1592  0f        rrca    
1593  80        add     a,b
1594  2000      jr      nz,#1596        ; (0)
1596  6b        ld      l,e
1597  016a01    ld      bc,#016a
159a  69        ld      l,c
159b  016801    ld      bc,#0168
159e  67        ld      h,a
159f  016601    ld      bc,#0166
15a2  65        ld      h,l
15a3  016401    ld      bc,#0164
15a6  63        ld      h,e
15a7  016201    ld      bc,#0162
15aa  61        ld      h,c
15ab  016001    ld      bc,#0160
15ae  5b        ld      e,e
15af  015a01    ld      bc,#015a
15b2  59        ld      e,c
15b3  015801    ld      bc,#0158
15b6  57        ld      d,a
15b7  015601    ld      bc,#0156
15ba  55        ld      d,l
15bb  015401    ld      bc,#0154
15be  53        ld      d,e
15bf  015201    ld      bc,#0152
15c2  51        ld      d,c
15c3  015001    ld      bc,#0150
15c6  4b        ld      c,e
15c7  014a01    ld      bc,#014a
15ca  49        ld      c,c
15cb  014801    ld      bc,#0148
15ce  47        ld      b,a
15cf  014601    ld      bc,#0146
15d2  45        ld      b,l
15d3  014401    ld      bc,#0144
15d6  43        ld      b,e
15d7  014201    ld      bc,#0142
15da  41        ld      b,c
15db  014001    ld      bc,#0140
15de  3b        dec     sp
15df  013a01    ld      bc,#013a
15e2  39        add     hl,sp
15e3  013801    ld      bc,#0138
15e6  37        scf     
15e7  013601    ld      bc,#0136
15ea  35        dec     (hl)
15eb  013401    ld      bc,#0134
15ee  33        inc     sp
15ef  013201    ld      bc,#0132
15f2  310130    ld      sp,#3001
15f5  01ff0f    ld      bc,#0fff
15f8  00        nop     
15f9  00        nop     
15fa  1f        rra     
15fb  010102    ld      bc,#0201
15fe  010301    ld      bc,#0103
1601  04        inc     b
1602  010501    ld      bc,#0105
1605  0601      ld      b,#01
1607  07        rlca    
1608  010801    ld      bc,#0108
160b  09        add     hl,bc
160c  010a01    ld      bc,#010a
160f  0b        dec     bc
1610  010c01    ld      bc,#010c
1613  0d        dec     c
1614  010e02    ld      bc,#020e
1617  0f        rrca    
1618  100e      djnz    #1628           ; (14)
161a  100d      djnz    #1629           ; (13)
161c  100c      djnz    #162a           ; (12)
161e  100b      djnz    #162b           ; (11)
1620  100a      djnz    #162c           ; (10)
1622  1009      djnz    #162d           ; (9)
1624  1008      djnz    #162e           ; (8)
1626  1007      djnz    #162f           ; (7)
1628  1006      djnz    #1630           ; (6)
162a  1005      djnz    #1631           ; (5)
162c  1004      djnz    #1632           ; (4)
162e  1003      djnz    #1633           ; (3)
1630  1802      jr      #1634           ; (2)
1632  2001      jr      nz,#1635        ; (1)
1634  20ff      jr      nz,#1635        ; (-1)
1636  0f        rrca    
1637  80        add     a,b
1638  2000      jr      nz,#163a        ; (0)
163a  47        ld      b,a
163b  1059      djnz    #1696           ; (89)
163d  0c        inc     c
163e  47        ld      b,a
163f  04        inc     b
1640  46        ld      b,(hl)
1641  08        ex      af,af'
1642  47        ld      b,a
1643  08        ex      af,af'
1644  45        ld      b,l
1645  08        ex      af,af'
1646  47        ld      b,a
1647  08        ex      af,af'
1648  50        ld      d,b
1649  1050      djnz    #169b           ; (80)
164b  1800      jr      #164d           ; (0)
164d  1847      jr      #1696           ; (71)
164f  1049      djnz    #169a           ; (73)
1651  0c        inc     c
1652  47        ld      b,a
1653  04        inc     b
1654  44        ld      b,h
1655  08        ex      af,af'
1656  47        ld      b,a
1657  08        ex      af,af'
1658  50        ld      d,b
1659  08        ex      af,af'
165a  52        ld      d,d
165b  08        ex      af,af'
165c  54        ld      d,h
165d  2800      jr      z,#165f         ; (0)
165f  1852      jr      #16b3           ; (82)
1661  1054      djnz    #16b7           ; (84)
1663  0c        inc     c
1664  52        ld      d,d
1665  04        inc     b
1666  51        ld      d,c
1667  08        ex      af,af'
1668  52        ld      d,d
1669  1852      jr      #16bd           ; (82)
166b  1054      djnz    #16c1           ; (84)
166d  0c        inc     c
166e  52        ld      d,d
166f  04        inc     b
1670  51        ld      d,c
1671  08        ex      af,af'
1672  52        ld      d,d
1673  08        ex      af,af'
1674  00        nop     
1675  0c        inc     c
1676  52        ld      d,d
1677  04        inc     b
1678  57        ld      d,a
1679  08        ex      af,af'
167a  57        ld      d,a
167b  08        ex      af,af'
167c  57        ld      d,a
167d  08        ex      af,af'
167e  57        ld      d,a
167f  08        ex      af,af'
1680  4b        ld      c,e
1681  104b      djnz    #16ce           ; (75)
1683  1050      djnz    #16d5           ; (80)
1685  20ff      jr      nz,#1686        ; (-1)
1687  0f        rrca    
1688  80        add     a,b
1689  2000      jr      nz,#168b        ; (0)
168b  40        ld      b,b
168c  08        ex      af,af'
168d  00        nop     
168e  08        ex      af,af'
168f  44        ld      b,h
1690  08        ex      af,af'
1691  00        nop     
1692  1844      jr      #16d8           ; (68)
1694  08        ex      af,af'
1695  00        nop     
1696  08        ex      af,af'
1697  44        ld      b,h
1698  08        ex      af,af'
1699  00        nop     
169a  08        ex      af,af'
169b  47        ld      b,a
169c  08        ex      af,af'
169d  00        nop     
169e  1847      jr      #16e7           ; (71)
16a0  08        ex      af,af'
16a1  00        nop     
16a2  08        ex      af,af'
16a3  40        ld      b,b
16a4  08        ex      af,af'
16a5  00        nop     
16a6  08        ex      af,af'
16a7  44        ld      b,h
16a8  08        ex      af,af'
16a9  00        nop     
16aa  1844      jr      #16f0           ; (68)
16ac  08        ex      af,af'
16ad  00        nop     
16ae  08        ex      af,af'
16af  57        ld      d,a
16b0  08        ex      af,af'
16b1  00        nop     
16b2  08        ex      af,af'
16b3  60        ld      h,b
16b4  08        ex      af,af'
16b5  00        nop     
16b6  1860      jr      #1718           ; (96)
16b8  08        ex      af,af'
16b9  00        nop     
16ba  08        ex      af,af'
16bb  57        ld      d,a
16bc  08        ex      af,af'
16bd  00        nop     
16be  08        ex      af,af'
16bf  5b        ld      e,e
16c0  08        ex      af,af'
16c1  00        nop     
16c2  185b      jr      #171f           ; (91)
16c4  08        ex      af,af'
16c5  00        nop     
16c6  08        ex      af,af'
16c7  57        ld      d,a
16c8  08        ex      af,af'
16c9  00        nop     
16ca  08        ex      af,af'
16cb  5b        ld      e,e
16cc  08        ex      af,af'
16cd  00        nop     
16ce  185b      jr      #172b           ; (91)
16d0  08        ex      af,af'
16d1  00        nop     
16d2  08        ex      af,af'
16d3  57        ld      d,a
16d4  08        ex      af,af'
16d5  00        nop     
16d6  08        ex      af,af'
16d7  62        ld      h,d
16d8  08        ex      af,af'
16d9  00        nop     
16da  1862      jr      #173e           ; (98)
16dc  08        ex      af,af'
16dd  00        nop     
16de  1854      jr      #1734           ; (84)
16e0  08        ex      af,af'
16e1  00        nop     
16e2  18ff      jr      #16e3           ; (-1)
16e4  0f        rrca    
16e5  80        add     a,b
16e6  2000      jr      nz,#16e8        ; (0)
16e8  59        ld      e,c
16e9  04        inc     b
16ea  52        ld      d,d
16eb  04        inc     b
16ec  55        ld      d,l
16ed  04        inc     b
16ee  59        ld      e,c
16ef  04        inc     b
16f0  57        ld      d,a
16f1  04        inc     b
16f2  50        ld      d,b
16f3  04        inc     b
16f4  54        ld      d,h
16f5  04        inc     b
16f6  57        ld      d,a
16f7  04        inc     b
16f8  55        ld      d,l
16f9  04        inc     b
16fa  49        ld      c,c
16fb  04        inc     b
16fc  52        ld      d,d
16fd  04        inc     b
16fe  55        ld      d,l
16ff  04        inc     b
1700  57        ld      d,a
1701  04        inc     b
1702  49        ld      c,c
1703  04        inc     b
1704  50        ld      d,b
1705  04        inc     b
1706  54        ld      d,h
1707  04        inc     b
1708  52        ld      d,d
1709  04        inc     b
170a  45        ld      b,l
170b  04        inc     b
170c  4b        ld      c,e
170d  04        inc     b
170e  52        ld      d,d
170f  04        inc     b
1710  50        ld      d,b
1711  08        ex      af,af'
1712  4b        ld      c,e
1713  08        ex      af,af'
1714  49        ld      c,c
1715  04        inc     b
1716  50        ld      d,b
1717  04        inc     b
1718  54        ld      d,h
1719  04        inc     b
171a  59        ld      e,c
171b  04        inc     b
171c  ff        rst     #38
171d  0f        rrca    
171e  80        add     a,b
171f  2000      jr      nz,#1721        ; (0)
1721  6b        ld      l,e
1722  016a01    ld      bc,#016a
1725  69        ld      l,c
1726  016801    ld      bc,#0168
1729  67        ld      h,a
172a  016601    ld      bc,#0166
172d  65        ld      h,l
172e  016401    ld      bc,#0164
1731  63        ld      h,e
1732  016201    ld      bc,#0162
1735  61        ld      h,c
1736  016001    ld      bc,#0160
1739  61        ld      h,c
173a  016201    ld      bc,#0162
173d  63        ld      h,e
173e  016401    ld      bc,#0164
1741  65        ld      h,l
1742  016601    ld      bc,#0166
1745  67        ld      h,a
1746  016601    ld      bc,#0166
1749  65        ld      h,l
174a  016401    ld      bc,#0164
174d  63        ld      h,e
174e  016201    ld      bc,#0162
1751  61        ld      h,c
1752  016001    ld      bc,#0160
1755  5f        ld      e,a
1756  015e01    ld      bc,#015e
1759  5d        ld      e,l
175a  015c01    ld      bc,#015c
175d  5b        ld      e,e
175e  015a01    ld      bc,#015a
1761  59        ld      e,c
1762  015801    ld      bc,#0158
1765  59        ld      e,c
1766  015a01    ld      bc,#015a
1769  5b        ld      e,e
176a  015c01    ld      bc,#015c
176d  5d        ld      e,l
176e  015e01    ld      bc,#015e
1771  5f        ld      e,a
1772  016001    ld      bc,#0160
1775  61        ld      h,c
1776  016201    ld      bc,#0162
1779  63        ld      h,e
177a  016201    ld      bc,#0162
177d  61        ld      h,c
177e  016001    ld      bc,#0160
1781  5f        ld      e,a
1782  015e01    ld      bc,#015e
1785  5d        ld      e,l
1786  015c01    ld      bc,#015c
1789  5b        ld      e,e
178a  015a01    ld      bc,#015a
178d  59        ld      e,c
178e  015801    ld      bc,#0158
1791  57        ld      d,a
1792  015601    ld      bc,#0156
1795  55        ld      d,l
1796  015401    ld      bc,#0154
1799  53        ld      d,e
179a  01ffff    ld      bc,#ffff
179d  ff        rst     #38
179e  ff        rst     #38
179f  ff        rst     #38
17a0  ff        rst     #38
17a1  ff        rst     #38
17a2  ff        rst     #38
17a3  ff        rst     #38
17a4  ff        rst     #38
17a5  ff        rst     #38
17a6  ff        rst     #38
17a7  ff        rst     #38
17a8  ff        rst     #38
17a9  ff        rst     #38
17aa  ff        rst     #38
17ab  ff        rst     #38
17ac  ff        rst     #38
17ad  ff        rst     #38
17ae  ff        rst     #38
17af  ff        rst     #38
17b0  ff        rst     #38
17b1  ff        rst     #38
17b2  ff        rst     #38
17b3  ff        rst     #38
17b4  ff        rst     #38
17b5  ff        rst     #38
17b6  ff        rst     #38
17b7  ff        rst     #38
17b8  ff        rst     #38
17b9  ff        rst     #38
17ba  61        ld      h,c
17bb  83        add     a,e
17bc  4c        ld      c,h
17bd  11007e    ld      de,#7e00
17c0  85        add     a,l
17c1  221101    ld      (#0111),hl
17c4  ff        rst     #38
17c5  ff        rst     #38
17c6  ff        rst     #38
17c7  ff        rst     #38
17c8  ff        rst     #38
17c9  ff        rst     #38
17ca  ff        rst     #38
17cb  ff        rst     #38
17cc  ff        rst     #38
17cd  ff        rst     #38
17ce  ff        rst     #38
17cf  ff        rst     #38